(dp0
S'00412'
p1
(dp2
S'thomas'
p3
I1
sS'influenza'
p4
I1
sS'sch'
p5
I1
sS'german'
p6
I1
sS'human'
p7
I1
sS'its'
p8
I1
sS'lace'
p9
I1
sS'whose'
p10
I1
sS'giant'
p11
I1
sS'rose'
p12
I1
sS'smith'
p13
I1
sS'theme'
p14
I1
sS'alberto'
p15
I1
sS'them'
p16
I1
sS'fritsch'
p17
I1
sS'around'
p18
I1
sS'possible'
p19
I1
sS'bound'
p20
I1
sS'commemorate'
p21
I1
sS'snake'
p22
I1
sS'katharina'
p23
I1
sS'abby'
p24
I1
sS'aristide'
p25
I1
sS"rydingsvard's"
p26
I1
sS'like'
p27
I1
sS'debut'
p28
I1
sS'michael'
p29
I1
sS'comprising'
p30
I1
sS'serves'
p31
I1
sS'specific'
p32
I1
sS'each'
p33
I1
sS'river'
p34
I1
sS'marie-jos'
p35
I1
sS'giacometti'
p36
I1
sS'people'
p37
I1
sS'barnett'
p38
I1
sS'joined'
p39
I1
sS'aldrich'
p40
I1
sS'joan'
p41
I1
sS'event'
p42
I1
sS'enemies'
p43
I1
sS'shown'
p44
I1
sS'genzken'
p45
I1
sS'temkin'
p46
I1
sS'does'
p47
I1
sS'life-size'
p48
I1
sS'guillaume'
p49
I1
sS'henry'
p50
I1
sS'french'
p51
I1
sS'volkswagen'
p52
I1
sS'broken'
p53
I1
sS'others'
p54
I1
sS'bronze'
p55
I2
sS'curator'
p56
I1
sS'pairs'
p57
I1
sS'installation'
p58
I1
sS'figurengruppe'
p59
I1
sS'boldly-colored'
p60
I1
sS'figures'
p61
I3
sS'massive'
p62
I1
sS'perforated'
p63
I1
sS'isa'
p64
I1
sS'matisse'
p65
I1
sS'kravis'
p66
I1
sS'symbolic'
p67
I1
sS"picasso's"
p68
I1
sS'pablo'
p69
I1
sS'tony'
p70
I1
sS'thick'
p71
I1
sS'apollinaire'
p72
I1
sS'top'
p73
I1
sS'abstracted'
p74
I1
sS'partnership'
p75
I1
sS'two'
p76
I2
sS'poet'
p77
I1
sS'war'
p78
I1
sS'modern'
p79
I1
sS'form'
p80
I1
sS'obelisk'
p81
I1
sS'brings'
p82
I1
sS'made'
p83
I2
sS'henri'
p84
I1
sS'these'
p85
I1
sS'abstract'
p86
I1
sS'rope'
p87
I1
sS'nine'
p88
I1
sS'monument'
p89
I3
sS'making'
p90
I1
sS'moonbird'
p91
I1
sS'sculpture'
p92
I4
sS'lace-like'
p93
I1
sS'bent'
p94
I1
sS'von'
p95
I1
sS'alongside'
p96
I1
sS'ann'
p97
I1
sS'diverse'
p98
I1
sS"maillol's"
p99
I1
sS'curved'
p100
I1
sS'madonna'
p101
I1
sS'garden'
p102
I2
sS'memorial'
p103
I1
sS'united'
p104
I1
sS'end'
p105
I1
sS'rather'
p106
I1
sS'also'
p107
I1
sS'mir'
p108
I1
sS'ursula'
p109
I1
sS'delicate'
p110
I1
sS'favorites'
p111
I1
sS'included'
p112
I1
sS'america'
p113
I1
sS'died'
p114
I1
sS'newman'
p115
I1
sS'rockefeller'
p116
I1
sS'together'
p117
I2
sS'st'
p118
I1
sS'patterns'
p119
I1
sS'chief'
p120
I1
sS'painting'
p121
I1
ssS'00413'
p122
(dp123
S'suggest'
p124
I1
sS'set'
p125
I1
sS'patron'
p126
I1
sS'portraits'
p127
I1
sS'loan'
p128
I1
sS'within'
p129
I1
sS'domestic'
p130
I1
sS'private'
p131
I1
sS'one'
p132
I1
sS'decorated'
p133
I1
sS'richly'
p134
I1
sS'selection'
p135
I1
sS'adele'
p136
I4
sS'heirs'
p137
I1
sS'industrialist'
p138
I1
sS'portrait'
p139
I1
sS'years'
p140
I1
sS'blocks'
p141
I1
sS'dress'
p142
I1
sS'worked'
p143
I1
sS'negotiations'
p144
I1
sS'york'
p145
I1
sS'family'
p146
I1
sS'figure'
p147
I1
sS'bloch-bauer'
p148
I8
sg76
I1
sS'legal'
p149
I1
sS'station'
p150
I1
sS'collections'
p151
I1
sS'interior'
p152
I1
sS'new'
p153
I1
sS'ferdinand'
p154
I1
sg86
I1
sS'nazis'
p155
I1
sS'vienna'
p156
I2
sS'possession'
p157
I1
sS'gustav'
p158
I1
sS'lived'
p159
I1
sS'klimt'
p160
I2
sS'returned'
p161
I1
sS'galerie'
p162
I1
sS'neue'
p163
I1
sS'completed'
p164
I1
sS'emphasizes'
p165
I1
sS'opulent'
p166
I1
sS'took'
p167
I1
sS'cultural'
p168
I1
sS'important'
p169
I1
sS'jewel-toned'
p170
I1
sS'sold'
p171
I1
sS'wealthy'
p172
I1
sS'along'
p173
I1
sS'towering'
p174
I1
sS'moma'
p175
I1
sS'now'
p176
I2
sS'elite'
p177
I1
sS'formal'
p178
I1
sS'patterned'
p179
I1
sg83
I1
sS'wife'
p180
I1
sg39
I1
sS'against'
p181
I1
sS'social'
p182
I1
sS'long-term'
p183
I1
sS'subsequently'
p184
I1
sS'backdrop'
p185
I1
sS'nearly'
p186
I1
ssS'00410'
p187
(dp188
S'breadth'
p189
I1
sS"moma's"
p190
I1
sS'themes'
p191
I1
sS'paper'
p192
I1
sS'drawings'
p193
I2
sS'underappreciated'
p194
I1
sg8
I1
sS'based'
p195
I1
sS'blog'
p196
I1
sS'offers'
p197
I1
sS'online'
p198
I1
sS'using'
p199
I1
sg175
I1
sS'bringing'
p200
I1
sS'evolution'
p201
I1
sS'loosely'
p202
I1
sS'relentless'
p203
I1
sS'ps'
p204
I1
sS'engravings'
p205
I1
sS'concise'
p206
I1
sS'underscores'
p207
I1
sS'lithographs'
p208
I1
sS'images'
p209
I1
sS'best'
p210
I1
sS'techniques'
p211
I1
sS'canvas'
p212
I1
sS'jackson'
p213
I2
sS'paintings'
p214
I1
sS'arguably'
p215
I1
sS'pouring'
p216
I1
sS'tracks'
p217
I1
sS'masterpiece'
p218
I1
sS'rare'
p219
I1
sS'influential'
p220
I1
sS'side'
p221
I1
sS'range'
p222
I1
sS'survey'
p223
I1
sS'efforts'
p224
I1
sS'onto'
p225
I1
sS'prints'
p226
I1
sS'radical'
p227
I1
sS'number'
p228
I1
sg132
I3
sS'quality'
p229
I1
sS'experimentation'
p230
I1
sS'late'
p231
I1
sS'abstractions'
p232
I1
sS'holdings'
p233
I1
sS'creativity'
p234
I1
sS'approximately'
p235
I1
sS'figurative'
p236
I1
sS'paint'
p237
I1
sS'little-known'
p238
I1
sS'pollock'
p239
I5
sS'conservation'
p240
I1
sS'checklist'
p241
I1
sS'known'
p242
I1
sS'primeval'
p243
I1
sg83
I2
sS'mythical'
p244
I1
sS'inside'
p245
I1
sS'pioneered'
p246
I1
sS'detailed'
p247
I1
sS'heart'
p248
I1
sS'century'
p249
I1
sS'process'
p250
I1
sS'dripping'
p251
I1
sS'canvases'
p252
I1
sS'depth'
p253
I1
sg107
I1
sS'emphasis'
p254
I1
sS'unparalleled'
p255
I1
sS'largest'
p256
I1
sS'artistic'
p257
I1
sS'most'
p258
I1
sg169
I1
sg112
I1
sS'highlighting'
p259
I1
sS'unorthodox'
p260
I1
sg117
I1
sS'traditional'
p261
I1
sS'exceedingly'
p262
I1
sS'materials'
p263
I1
sS'greatest'
p264
I1
sS'american'
p265
I1
sS'screenprints'
p266
I1
ssS'00411'
p267
(dp268
S'monet'
p269
I1
sg129
I1
sS'displayed'
p270
I1
sg140
I1
sg191
I1
sS'individual'
p271
I1
sS'including'
p272
I1
sS'cubism'
p273
I1
sS'movements'
p274
I1
sS'floor'
p275
I1
sS'claude'
p276
I1
sS'there'
p277
I1
sS'subjects'
p278
I1
sS'artworks'
p279
I1
sS'rich'
p280
I1
sS'various'
p281
I1
sS'galleries'
p282
I2
sS'stylistic'
p283
I1
sg79
I1
sS'overall'
p284
I1
sS'water'
p285
I1
sS'explore'
p286
I1
sS'reflecting'
p287
I1
sS'frequently'
p288
I1
sS'effort'
p289
I1
sS'countless'
p290
I1
sS'wide'
p291
I1
sS'lilies'
p292
I1
sS'chronological'
p293
I1
sS'reinstalled'
p294
I1
sg84
I1
sg85
I1
sS'flow'
p295
I1
sS'roughly'
p296
I1
sS'ways'
p297
I1
sg222
I1
sS'highlight'
p298
I1
sS'history'
p299
I1
sg65
I1
sS'configurations'
p300
I1
ssS'00416'
p301
(dp302
S'less'
p303
I1
sS'degas'
p304
I5
sS'dancers'
p305
I1
sS'experiments'
p306
I1
sg193
I1
sS'impact'
p307
I1
sS'ballet'
p308
I1
sS'tactility'
p309
I1
sS'technique'
p310
I1
sS'potential'
p311
I1
sS'capturing'
p312
I1
sS'enthusiasm'
p313
I1
sS'transformation'
p314
I1
sS'then'
p315
I1
sS'means'
p316
I1
sS'often'
p317
I1
sS'reversal'
p318
I1
sS'artwork'
p319
I1
sS'press'
p320
I1
sS'endless'
p321
I1
sS'heightened'
p322
I1
sS'profound'
p323
I1
sS'settings'
p324
I1
sg79
I1
sS'possibilities'
p325
I2
sS'liberating'
p326
I1
sS'reveals'
p327
I1
sS'restless'
p328
I1
sS'revised'
p329
I1
sS'some'
p330
I1
sS'related'
p331
I1
sS'engaging'
p332
I1
sS'abstraction'
p333
I1
sS'progress'
p334
I1
sg210
I1
sS'surfaces'
p335
I1
sS'mid-'
p336
I1
sg214
I1
sg297
I1
sS'nature'
p337
I1
sS'ink'
p338
I1
sS'motifs'
p339
I1
sS'innovation'
p340
I1
sS'print'
p341
I1
sg153
I4
sS'reworked'
p342
I1
sS'approach'
p343
I1
sS'immersed'
p344
I1
sS'revealing'
p345
I1
sS'completion'
p346
I1
sS'ends'
p347
I1
sS'run'
p348
I1
sS'extend'
p349
I1
sS'intimate'
p350
I1
sS'sparked'
p351
I1
sS'host'
p352
I1
sS'extent'
p353
I1
sS'invented'
p354
I1
sS'enormous'
p355
I1
sS'created'
p356
I1
sS'could'
p357
I1
sS'typically'
p358
I1
sS'edgar'
p359
I1
sS'printmaker'
p360
I1
sS'motion'
p361
I1
sS'boldly'
p362
I1
sS'resulting'
p363
I1
sS'introduced'
p364
I1
sg226
I1
sS'key'
p365
I1
sS'point'
p366
I1
sg227
I1
sS'image'
p367
I1
sS'mirroring'
p368
I1
sS'rarely'
p369
I1
sg230
I1
sg235
I1
sS'show'
p370
I1
sS'urban'
p371
I1
sS'life'
p372
I1
sS'medium'
p373
I2
sg80
I1
sS'body'
p374
I1
sS'sketchbooks'
p375
I1
sg242
I1
sS'repetition'
p376
I1
sS'true'
p377
I1
sS'spirit'
p378
I1
sS'painter'
p379
I1
sS'women'
p380
I1
sS'kind'
p381
I1
sS'expanded'
p382
I1
sS'variations'
p383
I1
sS'can'
p384
I1
sS'mediums'
p385
I1
sS'taking'
p386
I1
sS'radiance'
p387
I1
sS'monotypes'
p388
I1
sS'plate'
p389
I1
sg250
I2
sS'sense'
p390
I1
sS'single'
p391
I1
sS'allowed'
p392
I1
sS'mark-making'
p393
I1
sS'seen'
p394
I2
sS'monotype'
p395
I4
sS'different'
p396
I1
sS'daring'
p397
I1
sS'captivated'
p398
I1
sg107
I1
sg278
I1
sS'pastels'
p399
I1
sS'used'
p400
I1
sS'electric'
p401
I1
sS'meteorological'
p402
I1
sS'includes'
p403
I1
sg258
I1
sS'depicting'
p404
I1
sS'tradition'
p405
I1
sS'light'
p406
I1
sS'metal'
p407
I1
sS'chronicler'
p408
I1
sS'starting'
p409
I1
sS'drawing'
p410
I1
ssS'00417'
p411
(dp412
S'unexpected'
p413
I1
sS'chronologically'
p414
I1
sS'aims'
p415
I1
sS'classification'
p416
I1
sg277
I1
sS'curatorial'
p417
I1
sg282
I4
sg299
I1
sS'installed'
p418
I1
sg191
I1
sS'reopen'
p419
I1
sS'fourth-floor'
p420
I1
sS'art-historical'
p421
I1
sS'year'
p422
I2
sg83
I1
sS'organizing'
p423
I1
sg8
I2
sS'decade'
p424
I1
sg230
I1
sS'proceed'
p425
I1
sS'variety'
p426
I1
sS'provide'
p427
I1
sS'highlights'
p428
I1
sS'richness'
p429
I1
sS'six'
p430
I1
sg253
I1
sS'exclusively'
p431
I1
sS'production'
p432
I1
sS'capital'
p433
I1
sS'collaborative'
p434
I1
sS'instead'
p435
I1
sS'across'
p436
I1
sS'principle'
p437
I1
sS'product'
p438
I1
sg79
I2
sS'broad-ranging'
p439
I1
sS'curators'
p440
I1
sS'interdisciplinary'
p441
I1
sg337
I1
sg19
I1
sS'hyundai'
p442
I2
sg286
I1
sg287
I1
sg175
I1
sg113
I1
sg289
I1
sS'card'
p443
I1
sg290
I1
sS'connections'
p444
I1
sS'undergo'
p445
I1
sg58
I1
sg85
I1
sS'departments'
p446
I2
sg297
I1
sS'departs'
p447
I1
sS'periodic'
p448
I1
sg257
I1
sS'fresh'
p449
I1
sg385
I1
sS'interweaves'
p450
I1
sS'discoveries'
p451
I1
sS'reinstallations'
p452
I1
ssS'00414'
p453
(dp454
S'emerging'
p455
I1
sg3
I1
sS'looping'
p456
I1
sS'spaces'
p457
I1
sS'teamed'
p458
I1
sg175
I1
sS'group'
p459
I2
sS'paris'
p460
I1
sS'forms'
p461
I1
sS'projects'
p462
I3
sS'technological'
p463
I1
sS'repurposes'
p464
I1
sS'beloufa'
p465
I2
sS'enthusiastically'
p466
I1
sS'collaboratively'
p467
I1
sS'framing'
p468
I1
sS'international'
p469
I1
sg199
I1
sS'part'
p470
I2
sS'viewers'
p471
I1
sg27
I1
sS'nationale'
p472
I1
sg56
I1
sS'skyline'
p473
I1
sS'cooper'
p474
I1
sg33
I1
sS'popular'
p475
I1
sS'closed-circuit'
p476
I1
sS'consciously'
p477
I1
sS'j'
p478
I1
sg317
I1
sg37
I1
sS'imitate'
p479
I1
sS'series'
p480
I2
sS'national'
p481
I1
sS'installing'
p482
I1
sS'born'
p483
I1
sS'video'
p484
I2
sS'projections'
p485
I1
sg209
I1
sg211
I1
sS'describing'
p486
I1
sS'surrounded'
p487
I1
sS'moving-image'
p488
I1
sS'passion'
p489
I1
sS'sup'
p490
I1
sg153
I2
sS'foundation'
p491
I1
sS'numerous'
p492
I1
sg345
I1
sS'solo'
p493
I2
sS'associate'
p494
I1
sS'attention'
p495
I1
sS'here'
p496
I1
sg285
I1
sS'objects'
p497
I1
sS'california'
p498
I2
sg145
I2
sS"people's"
p499
I1
sS'unnamed'
p500
I1
sS'generate'
p501
I1
sS'received'
p502
I1
sS'lifestyle'
p503
I1
sS'inexpensive'
p504
I1
sS'infomercials'
p505
I1
sg182
I1
sS'apparatuses'
p506
I1
sg129
I2
sS'environments'
p507
I2
sS'featured'
p508
I1
sS'dannheisser'
p509
I3
sg288
I1
sS'city'
p510
I1
sS'combines'
p511
I1
sS'obstructing'
p512
I1
sS'union'
p513
I1
sS'create'
p514
I1
sg277
I1
sS'fiction'
p515
I1
sS'cords'
p516
I1
sg19
I1
sS'towers'
p517
I1
sS'glass'
p518
I1
sS'visual'
p519
I1
sS'construction'
p520
I1
sS'immersive'
p521
I1
sg58
I2
sS'junior'
p522
I1
sS'especially'
p523
I1
sS'television'
p524
I1
sg83
I2
sS'embedded'
p525
I1
sg85
I1
sS'science'
p526
I1
sS'des'
p527
I1
sS'up'
p528
I1
sS'midtown'
p529
I1
sS'gigantic'
p530
I1
sg385
I1
sg92
I1
sS'example'
p531
I1
sS'beautiful'
p532
I1
sS'studied'
p533
I1
sg79
I1
sS'associates'
p534
I1
sS'cables'
p535
I1
sS'media'
p536
I1
sS'ne'
p537
I1
sS'same'
p538
I1
sS'instance'
p539
I1
sS'actors'
p540
I1
sS'department'
p541
I1
sS'performance'
p542
I1
sS'colonies'
p543
I1
sS'manhattan'
p544
I1
sS'diploma'
p545
I1
sS'hand'
p546
I1
sS'viewing'
p547
I2
sS'lax'
p548
I1
sS'scripts'
p549
I1
sS'draws'
p550
I1
sS'beaux-arts'
p551
I1
sS'center'
p552
I1
sS'custom-built'
p553
I1
sg263
I1
sS'elaine'
p554
I3
sS'spectator'
p555
I1
sS'treats'
p556
I1
sS'wine'
p557
I1
ssS'00415'
p558
(dp559
S'ito'
p560
I3
sS'particularly'
p561
I1
sS'departing'
p562
I1
sS'developed'
p563
I1
sg417
I1
sS'global'
p564
I1
sS'contemporary'
p565
I5
sS'obayashi'
p566
I2
sg457
I1
sg272
I1
sg193
I1
sS'junya'
p567
I1
sS'japan'
p568
I2
sS'alternative'
p569
I1
sS'fine'
p570
I1
sg8
I1
sg307
I1
sS'pedro'
p571
I1
sS'internationally'
p572
I1
sS'thinking'
p573
I1
sg428
I1
sg522
I1
sS'presents'
p574
I1
sS'advanced'
p575
I1
sS'designs'
p576
I1
sg18
I1
sS'assistant'
p577
I1
sS'b'
p578
I1
sS'akihisa'
p579
I1
sg175
I3
sS'designers'
p580
I2
sS'kanazawa'
p581
I1
sS'translucent'
p582
I1
sS'structural'
p583
I1
sS'lineage'
p584
I1
sS'reveal'
p585
I1
sS'prize'
p586
I1
sS'transmission'
p587
I1
sS'eva'
p588
I1
sS'karen'
p589
I1
sS'nishizawa'
p590
I1
sS'individuality-based'
p591
I1
sS'architecture'
p592
I5
sS'small'
p593
I1
sS'become'
p594
I1
sS'organized'
p595
I1
sS'sanaa'
p596
I2
sS'thanks'
p597
I1
sS'mullen'
p598
I1
sS'generation'
p599
I1
sS'haas'
p600
I1
sS'wachenheim'
p601
I1
sS'japanese'
p602
I3
sS'gadanho'
p603
I1
sS'hirata'
p604
I1
sS'toda'
p605
I1
sS'invention'
p606
I1
sS'design'
p607
I1
sS'lisbon'
p608
I1
sg209
I1
sS'peter'
p609
I1
sS'constellation'
p610
I2
sS'provided'
p611
I3
sS'what'
p612
I1
sS'scale'
p613
I1
sS'network'
p614
I2
sS'contributions'
p615
I1
sS'since'
p616
I1
sS'current'
p617
I1
sS'kazuyo'
p618
I1
sS'daniel'
p619
I1
sg340
I1
sg153
I1
sS'taisei'
p620
I1
sg491
I7
sS'focuses'
p621
I1
sS'ishigami'
p622
I1
sS'carpenter'
p623
I1
sS'houses'
p624
I1
sS'architectural'
p625
I1
sS'mimi'
p626
I1
sS'lightness'
p627
I1
sS'non-hierarchical'
p628
I1
sg56
I1
sS'career'
p629
I1
sS'rhodes'
p630
I1
sS'gumi'
p631
I1
sS'leona'
p632
I1
sS'commonly'
p633
I1
sS'museums'
p634
I1
sS'suggests'
p635
I1
sg222
I1
sS'mentor'
p636
I1
sS'cross-pollination'
p637
I1
sS'studies'
p638
I1
sS'exploring'
p639
I1
sS'alice'
p640
I1
sS'major'
p641
I1
sS'relevant'
p642
I1
sg146
I2
sS'glenn'
p643
I1
sS'overview'
p644
I1
sS'toyo'
p645
I1
sg132
I1
sS'franz'
p646
I1
sg508
I1
sS'sou'
p647
I1
sS'gary'
p648
I1
sS'pritzker'
p649
I1
sS'sundheim'
p650
I1
sS'described'
p651
I1
sS'wassmer'
p652
I1
sS'fujimoto'
p653
I1
sS'start'
p654
I1
sS'springstubb'
p655
I1
sS'tom'
p656
I1
sS'kumagai'
p657
I1
sS'separated'
p658
I1
sS'curtains'
p659
I1
sS'ryue'
p660
I1
sg164
I1
sS'mediatheque'
p661
I1
sS'leonard'
p662
I1
sS'feinstein'
p663
I1
sS'fund'
p664
I2
sS'link'
p665
I1
sS'muji'
p666
I1
sS'former'
p667
I1
sS'blavatnik'
p668
I1
sS'novel'
p669
I1
sg85
I1
sS'donald'
p670
I1
sS'r'
p671
I1
sS'winnick'
p672
I1
sS'phoebe'
p673
I1
sS'transparency'
p674
I1
sS'providing'
p675
I1
sS'annual'
p676
I1
sS'council'
p677
I1
sg249
I2
sg79
I2
sS'influence'
p678
I2
sS'graham'
p679
I1
sS'tisch'
p680
I1
sg534
I1
sS'acclaimed'
p681
I1
sS'technology'
p682
I1
sS'intersecting'
p683
I1
sS'inc'
p684
I1
sS'corporation'
p685
I6
sS'dubin'
p686
I1
sS'winners'
p687
I1
sS'pivotal'
p688
I1
sg541
I1
sS'shimizu'
p689
I1
sS'intended'
p690
I1
sS'models'
p691
I1
sS'brett'
p692
I1
sS'luminaries'
p693
I1
sS'architects'
p694
I2
sS'director'
p695
I1
sS'takenaka'
p696
I1
sS'uses'
p697
I1
sS'chris'
p698
I1
sS'model'
p699
I1
sS'recent'
p700
I1
sS'e'
p701
I1
sS'reflection'
p702
I1
sS'susan'
p703
I1
sS'sendai'
p704
I1
sS'practices'
p705
I1
sS'sensibility'
p706
I1
sS'sejima'
p707
I1
sS'kajima'
p708
I1
ssS'00418'
p709
(dp710
g455
I1
sg563
I1
sS'focus'
p711
I1
sg140
I1
sg191
I2
sS'sources'
p712
I1
sg192
I1
sg272
I2
sg143
I1
sS'adding'
p713
I1
sS'touches'
p714
I1
sg459
I1
sg377
I1
sS'conner'
p715
I6
sS'sfmoma'
p716
I1
sS'black-and-white'
p717
I1
sS'postwar'
p718
I2
sg577
I1
sS'photography'
p719
I1
sg19
I1
sS'foremost'
p720
I1
sS'dark'
p721
I1
sS'avant-garde'
p722
I1
sS'half'
p723
I1
sg175
I3
sg583
I1
sS'laura'
p724
I1
sg27
I1
sg56
I5
sS'large'
p725
I1
sS'federman'
p726
I1
sg594
I1
sS'assemblage'
p727
I2
sS'frieling'
p728
I1
sS'leaders'
p729
I1
sS'collage'
p730
I1
sg600
I1
sS'footage'
p731
I2
sS'culture'
p732
I1
sg484
I1
sS'filmmaking'
p733
I1
sS'disturbing'
p734
I1
sS'incorporating'
p735
I1
sS'subject'
p736
I2
sS'nuclear'
p737
I1
sS'looking'
p738
I1
sS'pioneer'
p739
I1
sg281
I1
sS'garrels'
p740
I1
sg340
I1
sg153
I1
sS'method'
p741
I1
sS'experimental'
p742
I1
sS'simultaneously'
p743
I1
sS's'
p744
I1
sS'masterful'
p745
I1
sg442
I1
sg497
I2
sg498
I1
sg145
I1
sS'free-standing'
p746
I1
sS'compositions'
p747
I1
sg443
I1
sS'training'
p748
I1
sg356
I1
sg629
I1
sg617
I1
sS'photograms'
p749
I2
sg222
I1
sg223
I1
sS'sculptural'
p750
I1
sS'stuart'
p751
I1
sS'apocalypse'
p752
I1
sS'rudolf'
p753
I1
sS'daringly'
p754
I1
sS'comer'
p755
I1
sg226
I1
sS'own'
p756
I1
sS'hybrids'
p757
I1
sS'rachel'
p758
I1
sS'monographic'
p759
I1
sS'scene'
p760
I1
sg132
I1
sS'rising'
p761
I1
sg648
I1
sS'found-object'
p762
I1
sS'working'
p763
I1
sS'cinema'
p764
I1
sg76
I1
sS'films'
p765
I3
sS'utilizing'
p766
I1
sS'angels'
p767
I1
sS'complete'
p768
I1
sS'retrospective'
p769
I1
sg82
I1
sg518
I1
sS'child'
p770
I1
sS'life-sized'
p771
I1
sS'editing'
p772
I1
sS'photographic'
p773
I1
sg83
I1
sS'crossroads'
p774
I1
sS'matter'
p775
I2
sS'printing'
p776
I1
sS'era'
p777
I1
sg385
I1
sg92
I4
sS'called'
p778
I1
sS'later'
p779
I1
sS'san'
p780
I3
sS'hoptman'
p781
I1
sg249
I1
sS'defined'
p782
I1
sg79
I3
sg595
I1
sS'recognized'
p783
I1
sS'elise'
p784
I1
sS'film'
p785
I3
sg397
I1
sg426
I1
sg536
I2
sS'landmarks'
p786
I1
sg265
I3
sg107
I1
sS'widely'
p787
I1
sg541
I2
sg542
I3
sS'dread'
p788
I1
sS'francisco'
p789
I3
sS'practitioner'
p790
I1
sS'bruce'
p791
I1
sg169
I1
sS'utterly'
p792
I1
sS'haunting'
p793
I1
sS'oeuvre'
p794
I1
sg121
I5
sS'quick-cut'
p795
I1
sS'newsreels'
p796
I1
sg117
I1
sg120
I1
sS'relief'
p797
I1
sS'movie'
p798
I1
sS'senior'
p799
I1
sS'consumer'
p800
I1
sg410
I3
sS'bodies'
p801
I2
ssS'00419'
p802
(dp803
S'choreography'
p804
I1
sS'ana'
p805
I1
sg366
I1
sS'simple'
p806
I1
sS'keersmaeker'
p807
I1
sg417
I1
sS'teresa'
p808
I1
sg565
I2
sg340
I1
sS'days'
p809
I1
sg670
I1
sS'annenberg'
p810
I2
sS'performed'
p811
I2
sS'atrium'
p812
I1
sg83
I1
sS'physical'
p813
I1
sS'martha'
p814
I1
sS'project'
p815
I1
sS'radically'
p816
I1
sS'unique'
p817
I1
sS'abridged'
p818
I1
sS'space'
p819
I2
sS'joseph'
p820
I1
sg536
I1
sS'temporal'
p821
I1
sg494
I1
sS'question'
p822
I2
sS'length'
p823
I1
sS'dance'
p824
I1
sS'version'
p825
I2
sS'characteristics'
p826
I1
sS'answer'
p827
I1
sg542
I2
sS'anne'
p828
I1
sS'wiels'
p829
I1
sg19
I1
sg384
I1
sg491
I1
sS'marron'
p830
I1
sg80
I1
sS'centre'
p831
I1
sS'catherine'
p832
I1
sS'de'
p833
I1
sg396
I1
sS'temporum'
p834
I1
sS'hours'
p835
I1
sS're-created'
p836
I1
sS'wallis'
p837
I1
sg541
I1
sS're-choreographed'
p838
I1
sS'consecutive'
p839
I1
sg175
I2
sS'brussels'
p840
I1
sS'weeks'
p841
I1
sS'circumstances'
p842
I1
sS'c'
p843
I1
sg578
I1
sS'theater'
p844
I1
sg664
I1
sS'reinterpreted'
p845
I1
sS'adapted'
p846
I1
sS'originally'
p847
I1
sg382
I1
sg56
I1
sS'lasted'
p848
I1
sS'janevski'
p849
I1
sg32
I1
sS'vortex'
p850
I1
sg88
I3
sS'she'
p851
I1
sg577
I1
sS'cycles'
p852
I1
sg409
I1
sS'original'
p853
I2
sS'travel'
p854
I1
ssS'00603'
p855
(dp856
S'enigmatic'
p857
I1
sS'beguiling'
p858
I1
sg104
I1
sS'galleria'
p859
I1
sg214
I1
sS'presented'
p860
I1
sS'lent'
p861
I1
sS'recorded'
p862
I1
sS'borghese'
p863
I1
sg132
I1
sS'raphael'
p864
I1
sg258
I1
sS'states'
p865
I1
sg218
I1
sS'focused'
p866
I1
sS'time'
p867
I1
sS'rome'
p868
I1
ssS'00602'
p869
(dp870
g780
I2
sS'chinese'
p871
I1
sS'malcolm'
p872
I1
sS'india'
p873
I1
sg602
I1
sS'founded'
p874
I1
sS'hard-paste'
p875
I1
sS'asian'
p876
I1
sS'manufactory'
p877
I1
sS'importing'
p878
I1
sg570
I1
sS'roots'
p879
I1
sg634
I1
sS'legion'
p880
I1
sS'royal'
p881
I1
sg235
I1
sS'meissen'
p882
I2
sS'dutch'
p883
I1
sS'east'
p884
I1
sS'company'
p885
I1
sS'european'
p886
I1
sS'europe'
p887
I1
sg789
I2
sS'dresden'
p888
I1
sS'princely'
p889
I1
sS'porcelain'
p890
I3
sS'gifts'
p891
I1
sS'produce'
p892
I1
sS'germany'
p893
I1
sS'pursuit'
p894
I1
sS'imitating'
p895
I1
sS'present'
p896
I1
sS'ceramics'
p897
I1
sS'gutter'
p898
I1
sg219
I1
sS'd'
p899
I1
sS'travels'
p900
I1
sS'near'
p901
I1
sg867
I1
sS'honor'
p902
I1
sS'promised'
p903
I1
ssS'00319'
p904
(dp905
S'imitated'
p906
I1
sS'consider'
p907
I1
sS'collectors'
p908
I1
sg249
I1
sS'highly'
p909
I1
sS'legacy'
p910
I1
sS'archaeological'
p911
I1
sS'examples'
p912
I1
sS'led'
p913
I1
sS'research'
p914
I1
sS'artifacts'
p915
I1
sS'west'
p916
I1
sS'custom'
p917
I1
sS'attracted'
p918
I1
sS'compares'
p919
I1
sS'interest'
p920
I1
sS'refurbished'
p921
I1
sS'unprecedented'
p922
I1
sS'fragmentary'
p923
I1
sS'iran'
p924
I1
sS'medieval'
p925
I1
sS'enhancing'
p926
I1
sS'commercial'
p927
I1
sS'demand'
p928
I1
sg133
I1
sg140
I1
sS'those'
p929
I1
sS'repairing'
p930
I1
sS'figural'
p931
I1
sg779
I1
sg634
I1
sS'filling'
p932
I1
sg705
I1
sS'deteriorated'
p933
I1
sS'syria'
p934
I1
sS'excavations'
p935
I1
sS'forged'
p936
I1
ssS'00318'
p937
(dp938
S'represent'
p939
I1
sS'katz'
p940
I4
sS'help'
p941
I1
sS'captures'
p942
I1
sg272
I1
sg193
I1
sS'committed'
p943
I1
sS'style'
p944
I1
sS'lauder'
p945
I1
sS"katz's"
p946
I4
sg231
I2
sS'device'
p947
I1
sS'contours'
p948
I1
sS'ada'
p949
I1
sS'street'
p950
I1
sg404
I1
sg186
I1
sg435
I1
sS'during'
p951
I1
sS'strategic'
p952
I1
sS'desire'
p953
I1
sS'entire'
p954
I1
sS'school'
p955
I1
sS'alex'
p956
I1
sg32
I1
sS'whether'
p957
I2
sS'characterized'
p958
I1
sS'innovative'
p959
I1
sg483
I2
sS'arc'
p960
I1
sS'choosing'
p961
I1
sS'our'
p962
I1
sS'recognizable'
p963
I1
sg214
I1
sg339
I1
sg153
I1
sg436
I1
sS'bold'
p964
I1
sS'met'
p965
I1
sg145
I1
sS'loans'
p966
I1
sS'celebration'
p967
I1
sg629
I1
sg547
I1
sS'place'
p968
I1
sg182
I1
sS"era's"
p969
I1
sS'afar'
p970
I1
sS'seeing'
p971
I1
sg226
I1
sg756
I1
sg643
I1
sS'color'
p972
I1
sg132
I2
sS'cityscape'
p973
I1
sS'donated'
p974
I1
sS'brush'
p975
I1
sS'total'
p976
I1
sS'summarize'
p977
I1
sS'shading'
p978
I1
sg76
I2
sS'much'
p979
I1
sS'empty'
p980
I1
sS'cutouts'
p981
I1
sS'himself'
p982
I1
sS'accompany'
p983
I1
sS'muse'
p984
I1
sS'stylized'
p985
I1
sS'mounted'
p986
I1
sS'peculiar'
p987
I1
sS'room'
p988
I1
sg85
I1
sS'crowded'
p989
I1
sg528
I1
sS'spectatorship'
p990
I1
sS'generosity'
p991
I1
sS'gathers'
p992
I1
sS'mature'
p993
I1
sg246
I1
sS'swipes'
p994
I1
sS'mechanics'
p995
I1
sg127
I2
sS'itself'
p996
I1
sS'suspense'
p997
I1
sg903
I1
sg681
I1
sS'close'
p998
I1
sS'depict'
p999
I1
sS'develop'
p1000
I1
sS'began'
p1001
I1
sS'elegance'
p1002
I1
sg107
I1
sg278
I1
sS'details'
p1003
I1
sS'long-time'
p1004
I1
sS'heyday'
p1005
I1
sS'circles'
p1006
I1
sS'simplicity'
p1007
I1
sg333
I1
sg141
I1
sS'surprise'
p1008
I1
sS'act'
p1009
I1
sg693
I1
sg891
I1
sg258
I1
sS'brooklyn'
p1010
I1
sg662
I1
sg793
I1
sS'minimizes'
p1011
I1
sg180
I1
sS'age'
p1012
I1
sS'person'
p1013
I1
sg257
I2
sS'pleasure'
p1014
I1
sS'fuhrman'
p1015
I1
sS'came'
p1016
I1
ssS'00605'
p1017
(dp1018
g226
I1
sS'ephemera'
p1019
I1
sS'wide-ranging'
p1020
I1
sg193
I1
sS'cultivated'
p1021
I1
sS'diversity'
p1022
I1
sg570
I1
sg813
I1
sg104
I1
sg214
I1
sS'frontier'
p1023
I1
sg915
I1
sg916
I1
sS'environment'
p1024
I1
sg151
I1
sS'mined'
p1025
I1
sS'celebrates'
p1026
I1
sg257
I1
sS'photographs'
p1027
I1
sg129
I1
sS'explores'
p1028
I1
sS'responses'
p1029
I1
sS'thematic'
p1030
I1
sS'western'
p1031
I1
sg896
I1
sS'abundance'
p1032
I1
sg865
I1
sS'natural'
p1033
I1
sS'sculptures'
p1034
I1
sS'region'
p1035
I1
sg634
I1
sg777
I1
sS'historical'
p1036
I1
sS'wild'
p1037
I1
sS'landscapes'
p1038
I1
ssS'00604'
p1039
(dp1040
S'sprawling'
p1041
I1
sS'program'
p1042
I1
sS'woodcut'
p1043
I1
sg6
I1
sS'text'
p1044
I1
sS'chronicarum'
p1045
I1
sS'creation'
p1046
I1
sS'back'
p1047
I1
sS'hartmann'
p1048
I1
sS'documenting'
p1049
I1
sS'publishing'
p1050
I1
sS'book'
p1051
I1
sS'ambitious'
p1052
I1
sS'extensive'
p1053
I1
sS'illustration'
p1054
I1
sS'milestone'
p1055
I1
sS'schedel'
p1056
I1
sg954
I1
sS'nuremberg'
p1057
I1
sS'scholar'
p1058
I1
sS'chronicle'
p1059
I1
sS'hugely'
p1060
I1
sg299
I2
ssS'00315'
p1061
(dp1062
g641
I1
sg135
I1
sg871
I1
sg249
I1
sg873
I1
sS'eighteenth'
p1063
I1
sg132
I1
sS'finest'
p1064
I1
sS'carved'
p1065
I1
sS'heber'
p1066
I1
sg8
I1
sS'hundredth'
p1067
I1
sS'renowned'
p1068
I1
sS'metropolitan'
p1069
I1
sS'anniversary'
p1070
I1
sS'bequeathed'
p1071
I1
sg541
I1
sg1026
I1
sS'consisting'
p1072
I1
sS'centuries'
p1073
I1
sS'thousand'
p1074
I1
sS'formed'
p1075
I1
sS"bishop's"
p1076
I1
sS'mughal'
p1077
I1
sS'jades'
p1078
I3
sg381
I1
sS'last'
p1079
I1
sS'country'
p1080
I1
sg671
I1
sS'nineteenth'
p1081
I2
sS'quarter'
p1082
I1
sg876
I1
sg912
I1
ssS'00314'
p1083
(dp1084
g939
I1
sg873
I1
sS'aspect'
p1085
I1
sS'battle'
p1086
I1
sS'festivals'
p1087
I1
sS'vishnu'
p1088
I1
sS'religious'
p1089
I1
sS'narasimha'
p1090
I1
sS'category'
p1091
I1
sg10
I1
sg999
I1
sg428
I1
sS'devotional'
p1092
I1
sg231
I1
sS'indian'
p1093
I1
sS'man-lion'
p1094
I1
sS'unrecorded'
p1095
I1
sS'avatar'
p1096
I1
sg925
I1
sS'protagonists'
p1097
I1
sS'southern'
p1098
I1
sS'masks'
p1099
I2
sS'deadly'
p1100
I1
sg169
I1
sS'five'
p1101
I1
sS'evil'
p1102
I1
sg951
I1
sg967
I1
sS'king'
p1103
I1
sg219
I1
sg860
I1
sS'wooden'
p1104
I1
sS'universe'
p1105
I1
sS'dramas'
p1106
I1
sS'largely'
p1107
I1
sS'order'
p1108
I1
sS'restoration'
p1109
I1
sg750
I1
sS'hindu'
p1110
I1
sg475
I1
sS'essential'
p1111
I1
sS'destruction'
p1112
I1
ssS'00317'
p1113
(dp1114
g871
I1
sS'flowers'
p1115
I1
sS'mediterranean'
p1116
I1
sS'rank'
p1117
I1
sS'linking'
p1118
I1
sS'phoenixes'
p1119
I2
sg912
I2
sS'contemporaneous'
p1120
I1
sg568
I1
sS'eighteenth-century'
p1121
I1
sS'embroideries'
p1122
I1
sS'textiles'
p1123
I1
sS'theatrical'
p1124
I1
sS'unusual'
p1125
I1
sS'silk'
p1126
I1
sS'seventeenth-'
p1127
I1
sS'addition'
p1128
I1
sg916
I1
sg310
I1
sS'three'
p1129
I1
sS'asia'
p1130
I2
sS'imperial'
p1131
I1
sg231
I1
sg107
I2
sS'central'
p1132
I2
sS'showcases'
p1133
I1
sS'dating'
p1134
I1
sS'badges'
p1135
I1
sS'eleventh-'
p1136
I1
sS'costumes'
p1137
I1
sS'korea'
p1138
I1
sg1028
I1
sg102
I1
sS'hub'
p1139
I1
sS'importance'
p1140
I1
sS'showing'
p1141
I1
sS'court'
p1142
I2
sS'ultimately'
p1143
I1
sg403
I1
sg258
I1
sS"museum's"
p1144
I1
sg169
I1
sS'china'
p1145
I2
sg58
I1
sg133
I1
sS'dynasty'
p1146
I1
sS'tapestries'
p1147
I1
sS'twelfth-century'
p1148
I1
sS'panel'
p1149
I1
sg219
I1
sS'garments'
p1150
I1
sS'tang'
p1151
I1
sg168
I2
sg117
I1
sS'monumental'
p1152
I1
sS'worn'
p1153
I1
sS'served'
p1154
I1
sS'canopy'
p1155
I1
sS'designate'
p1156
I1
sS'fourteenth-century'
p1157
I1
ssS'00316'
p1158
(dp1159
g561
I1
sg146
I1
sS'exposed'
p1160
I1
sS'gods'
p1161
I1
sg1115
I1
sg400
I2
sS'screens'
p1162
I1
sS'protective'
p1163
I1
sS'animals'
p1164
I1
sg912
I1
sS'hardens'
p1165
I1
sS'representations'
p1166
I1
sg209
I1
sg568
I1
sS'throughout'
p1167
I1
sS'birds'
p1168
I1
sS'trays'
p1169
I1
sg211
I1
sg258
I1
sS'pigments'
p1170
I1
sg195
I1
sg58
I1
sg536
I1
sg514
I1
sS'millennia'
p1171
I1
sS'ideal'
p1172
I1
sg1130
I1
sS'plastic'
p1173
I1
sg107
I1
sS'amazing'
p1174
I1
sS'polymerizes'
p1175
I1
sg871
I1
sS'real'
p1176
I1
sg1138
I1
sS'lacquer'
p1177
I4
sg475
I1
sS'becoming'
p1178
I1
sS'material'
p1179
I1
sg1098
I1
sS'trees'
p1180
I1
sS'southeast'
p1181
I1
sg1144
I1
sg169
I1
sg1145
I1
sS'carbon'
p1182
I1
sS'laborious'
p1183
I1
sg1028
I1
sS'implements'
p1184
I1
sg1033
I1
sg244
I1
sS'oxygen'
p1185
I1
sS'covering'
p1186
I1
sS'scenes'
p1187
I1
sS'resin'
p1188
I1
sS'humidity'
p1189
I1
sS'cinnabar'
p1190
I1
sS'literature'
p1191
I1
sg257
I1
sS'mixed'
p1192
I1
sS'found'
p1193
I1
sg1038
I1
sg299
I1
ssS'00311'
p1194
(dp1195
g939
I1
sg226
I1
sS'electrician'
p1196
I1
sg1069
I1
sS'hyatt'
p1197
I1
sg1019
I1
sS'integral'
p1198
I1
sS'trade'
p1199
I1
sg865
I1
sS'sport'
p1200
I2
sS'another'
p1201
I1
sS'illustrating'
p1202
I1
sS'lithography'
p1203
I1
sS'turn'
p1204
I1
sS'fame'
p1205
I1
sS'mayor'
p1206
I1
sS'illustrate'
p1207
I1
sS"art's"
p1208
I1
sS'batches'
p1209
I1
sg104
I1
sS'legends'
p1210
I1
sS'dead-ball'
p1211
I1
sg536
I1
sg1001
I1
sg249
I1
sS'postcards'
p1212
I1
sS'cooperstown'
p1213
I1
sg235
I1
sS'tells'
p1214
I1
sS'outside'
p1215
I1
sS'jefferson'
p1216
I1
sg281
I1
sS'types'
p1217
I1
sS'constitutes'
p1218
I1
sg153
I1
sS'lesser-known'
p1219
I1
sS'syracuse'
p1220
I1
sg719
I1
sg1027
I1
sS'imagery'
p1221
I1
sg79
I1
sS'approached'
p1222
I1
sS'comprehensive'
p1223
I1
sg1074
I1
sS'printmaking'
p1224
I1
sg1144
I1
sg470
I1
sS'baseball'
p1225
I6
sg145
I1
sS'date'
p1226
I1
sg173
I1
sS'hall'
p1227
I1
sg443
I1
sS'burdick'
p1228
I3
sg954
I1
sS'owners'
p1229
I1
sS'donate'
p1230
I1
sS'thirty'
p1231
I1
sg258
I1
sg1012
I1
sS'players'
p1232
I1
sS'golden'
p1233
I1
sg56
I1
sS'teams'
p1234
I1
sg725
I1
sS'cards'
p1235
I4
sS'game'
p1236
I1
sg671
I1
sg777
I2
sS'document'
p1237
I1
sg475
I1
sg1081
I1
sS'having'
p1238
I1
sg299
I3
ssS'00310'
p1239
(dp1240
S'woodwork'
p1241
I1
sg8
I1
sS'before'
p1242
I1
sS'gilded'
p1243
I2
sg231
I3
sg151
I1
sS'dressing'
p1244
I1
sS'worsham'
p1245
I1
sS'decorating'
p1246
I1
sS'firms'
p1247
I1
sS'decorator'
p1248
I1
sS'furniture'
p1249
I2
sS'h'
p1250
I1
sg725
I1
sS'individuals'
p1251
I1
sg1193
I1
sS'noted'
p1252
I1
sg327
I1
sS'house'
p1253
I2
sg330
I4
sg607
I1
sg912
I1
sS'operated'
p1254
I1
sS'huntington'
p1255
I1
sS'collector'
p1256
I1
sS"america's"
p1257
I1
sS'competitor'
p1258
I1
sg153
I4
sS'newly'
p1259
I1
sS'public'
p1260
I2
sS"york's"
p1261
I1
sS'never'
p1262
I1
sS'vanderbilt'
p1263
I1
sS"nation's"
p1264
I1
sS'philanthropist'
p1265
I1
sg145
I2
sg966
I1
sg219
I1
sg356
I1
sS'herter'
p1266
I1
sS'elaborate'
p1267
I1
sS'attributed'
p1268
I1
sS'best-known'
p1269
I1
sS'schastey'
p1270
I2
sS"schastey's"
p1271
I2
sS'worsham-rockefeller'
p1272
I1
sS'surviving'
p1273
I1
sS'ca'
p1274
I1
sg131
I1
sS'adjoining'
p1275
I1
sg976
I1
sS'george'
p1276
I1
sg510
I1
sS'little'
p1277
I1
sg1129
I1
sS'households'
p1278
I1
sS'commission'
p1279
I2
sS'decorations'
p1280
I1
sS'today'
p1281
I1
sS'firm'
p1282
I1
sg768
I1
sS'successful'
p1283
I1
sS'catering'
p1284
I1
sS'centerpiece'
p1285
I1
sS'commissioned'
p1286
I1
sS'gain'
p1287
I1
sg242
I2
sS'insights'
p1288
I1
sS'arabella'
p1289
I1
sg988
I1
sg85
I1
sS'wealthiest'
p1290
I2
sg298
I1
sg249
I2
sS'sumptuous'
p1291
I1
sS'dozen'
p1292
I1
sg107
I1
sS'role'
p1293
I1
sg152
I1
sS'three-part'
p1294
I1
sS'contemporaries'
p1295
I1
sS'brothers'
p1296
I1
sg166
I1
sS'luxurious'
p1297
I1
sS'william'
p1298
I1
sg258
I3
sS'moment'
p1299
I1
sg169
I2
sg113
I1
sS'gallery'
p1300
I1
sS'visitors'
p1301
I1
sg1012
I2
sS'interiors'
p1302
I1
sS'nineteenth-century'
p1303
I1
sS"firm's"
p1304
I1
sg257
I1
sg867
I1
sg1081
I2
sS'cabinetmaker'
p1305
I1
ssS'00313'
p1306
(dp1307
S'remarkable'
p1308
I1
sg370
I1
sS'ephemeral'
p1309
I2
sg417
I1
sS'toulouse-lautrec'
p1310
I1
sS'hopper'
p1311
I1
sg711
I1
sg140
I1
sS'purely'
p1312
I1
sS'daumier'
p1313
I1
sg7
I1
sg1206
I4
sS'gamut'
p1314
I1
sS'albrecht'
p1315
I1
sS'edward'
p1316
I2
sS'equally'
p1317
I1
sS'thousands'
p1318
I1
sS'meant'
p1319
I2
sS'centenary'
p1320
I1
sS'founding'
p1321
I1
sS'exceptional'
p1322
I1
sg833
I2
sS'artfully'
p1323
I1
sS'distinctly'
p1324
I1
sS'aspirations'
p1325
I2
sg951
I1
sS'fifty'
p1326
I1
sS'vast'
p1327
I1
sS'areas'
p1328
I1
sg201
I1
sg27
I2
sS'james'
p1329
I1
sg56
I1
sS'mcneill'
p1330
I1
sg475
I1
sS'vision'
p1331
I1
sS'cassatt'
p1332
I1
sg327
I1
sS'spiritual'
p1333
I1
sS'functional'
p1334
I1
sS'library'
p1335
I1
sg899
I1
sS'celebrating'
p1336
I1
sg910
I1
sS'loftiest'
p1337
I1
sS'etchings'
p1338
I1
sS'prot'
p1339
I1
sS"man's"
p1340
I2
sS'content'
p1341
I1
sg341
I3
sg1260
I1
sS"met's"
p1342
I1
sS'power'
p1343
I1
sg745
I1
sS'given'
p1344
I1
sS'hundreds'
p1345
I1
sS'approaches'
p1346
I1
sg497
I1
sS'historians'
p1347
I1
sS'ever-widening'
p1348
I1
sS'beginning'
p1349
I1
sS'throw'
p1350
I1
sS'reflect'
p1351
I1
sS'great'
p1352
I1
sg219
I1
sS'brilliant'
p1353
I1
sg533
I1
sS'according'
p1354
I1
sS'priorities'
p1355
I1
sS'rijn'
p1356
I1
sg1204
I1
sS'fifty-year'
p1357
I1
sS'pictorial'
p1358
I1
sg182
I1
sS'whistler'
p1359
I1
sS'whole'
p1360
I1
sg902
I1
sS'jacques'
p1361
I1
sS'composed'
p1362
I1
sS'goya'
p1363
I1
sg226
I5
sg756
I1
sg205
I1
sS'endeavor'
p1364
I1
sS'open'
p1365
I1
sS'amassed'
p1366
I1
sS'story'
p1367
I1
sS'van'
p1368
I1
sg233
I1
sS"department's"
p1369
I2
sS'name'
p1370
I1
sS'few'
p1371
I1
sS'spread'
p1372
I1
sS'combined'
p1373
I1
sS'way'
p1374
I1
sS'raimondi'
p1375
I1
sS'scope'
p1376
I1
sS'corpus'
p1377
I1
sS'mary'
p1378
I1
sg372
I1
sS'describe'
p1379
I1
sS'amateur'
p1380
I1
sg768
I1
sS'marcantonio'
p1381
I1
sS'specialists'
p1382
I1
sS'andrea'
p1383
I1
sg929
I1
sg84
I1
sS'mantegna'
p1384
I1
sg775
I1
sS'entr'
p1385
I1
sS'aesthetic'
p1386
I1
sS'abandon'
p1387
I1
sS'rembrandt'
p1388
I1
sg299
I1
sg532
I1
sg1069
I1
sg1197
I1
sS'courtesies'
p1389
I1
sg96
I1
sS'aspects'
p1390
I1
sg1214
I1
sS'constructed'
p1391
I1
sS'information'
p1392
I2
sS'mills'
p1393
I1
sg265
I1
sS'commemorates'
p1394
I1
sS'any'
p1395
I1
sg107
I1
sS'concerns'
p1396
I1
sg541
I1
sS'ivins'
p1397
I5
sS'stock'
p1398
I1
sg789
I1
sg1028
I1
sS'context'
p1399
I1
sS'penfield'
p1400
I1
sS'students'
p1401
I1
sg1223
I1
sS'astounding'
p1402
I1
sS'callot'
p1403
I1
sg1298
I1
sg258
I4
sg169
I1
sS'printed'
p1404
I1
sS'changing'
p1405
I1
sS'building'
p1406
I1
sg1012
I1
sS'm'
p1407
I1
sg117
I1
sS'encyclopedic'
p1408
I1
sS'tenure'
p1409
I1
sg8
I4
sg410
I1
ssS'00312'
p1410
(dp1411
S'decorative'
p1412
I1
sS'styles'
p1413
I1
sS'eastern'
p1414
I1
sg382
I1
sg1069
I1
sS'donors'
p1415
I1
sS'acquired'
p1416
I1
sg417
I1
sg282
I1
sg874
I1
sg910
I1
sg876
I4
sg8
I2
sg813
I1
sS'grown'
p1417
I2
sS'established'
p1418
I1
sg612
I1
sg908
I1
sg819
I1
sg233
I1
sg117
I1
sg616
I1
sS'directors'
p1419
I1
sg489
I1
sg541
I3
sg334
I1
sg1027
I1
sg315
I1
sg438
I1
sg1342
I2
sS'separate'
p1420
I1
sS'far'
p1421
I1
sS'timeline'
p1422
I1
sg440
I1
sS'diversified'
p1423
I1
sg1143
I1
sS"institution's"
p1424
I1
sg1144
I1
sS'shaped'
p1425
I1
sS'footprint'
p1426
I1
sg1405
I1
sg897
I1
sS"building's"
p1427
I1
sg1370
I1
sg860
I1
sg847
I1
sS'changed'
p1428
I1
sg446
I1
sS'face'
p1429
I1
sS'lacquers'
p1430
I1
sS'chronicles'
p1431
I1
sS'evolved'
p1432
I1
sS'enter'
p1433
I1
sS'accommodated'
p1434
I1
sS'dealers'
p1435
I1
sg778
I1
sS'scholarship'
p1436
I1
ssS'00421'
p1437
(dp1438
g42
I1
sS'sketch'
p1439
I1
sg756
I1
sS'newest'
p1440
I1
sg250
I1
sg75
I1
sS'ages'
p1441
I1
sS'discover'
p1442
I1
sS'concept'
p1443
I1
sg607
I2
sg597
I1
sS'registration'
p1444
I1
sg962
I1
sS'chair'
p1445
I1
sS'still'
p1446
I1
sS'randolph'
p1447
I1
sS'your'
p1448
I1
sg611
I1
sg612
I2
sg113
I1
sg459
I1
sS'additional'
p1449
I1
sS'no'
p1450
I1
sg297
I1
sS'endowment'
p1451
I1
sS'education'
p1452
I1
sg664
I2
sS'creative'
p1453
I1
sg432
I1
sS'square'
p1454
I1
sS'teaching'
p1455
I1
sg676
I1
sS'donor'
p1456
I1
sS'you'
p1457
I1
sS'hearst'
p1458
I1
sg372
I1
sS'collaborate'
p1459
I1
sS'beyond'
p1460
I1
sS'welcome'
p1461
I1
sg396
I1
sS'lab'
p1462
I1
sg19
I2
sS'labs'
p1463
I1
sg1301
I1
sg83
I2
sS'anonymous'
p1464
I1
sg319
I1
sS'assemble'
p1465
I1
sg175
I2
sg52
I1
sg1298
I1
sS'christina'
p1466
I1
sS'engage'
p1467
I1
sS'programs'
p1468
I1
sS'required'
p1469
I1
sS'p'
p1470
I2
sg671
I1
sg384
I1
sS'davis'
p1471
I1
sg90
I1
sg92
I1
sS'inspires'
p1472
I2
ssS'00420'
p1473
(dp1474
S'el'
p1475
I1
sS'examines'
p1476
I1
sS'provocative'
p1477
I1
sS'activities'
p1478
I1
sS'engaged'
p1479
I2
sS'site'
p1480
I1
sS'jennifer'
p1481
I1
sS'unrest'
p1482
I1
sS'reader'
p1483
I1
sg98
I1
sS'vitally'
p1484
I1
sg117
I1
sS'poems'
p1485
I1
sS'whale'
p1486
I1
sg459
I3
sS'goal'
p1487
I1
sS'la'
p1488
I1
sg370
I1
sS'political'
p1489
I1
sS'literary'
p1490
I1
sS'writers'
p1491
I1
sS'manifestos'
p1492
I1
sS'techo'
p1493
I1
sS'venezuelan'
p1494
I1
sS'events'
p1495
I1
sS'publications'
p1496
I1
sS'loose-knit'
p1497
I1
sS'poets'
p1498
I1
sS'extended'
p1499
I1
sS'transforming'
p1500
I1
sg595
I1
sg833
I1
sS'tobias'
p1501
I1
sS'librarian'
p1502
I1
sS'lives'
p1503
I1
sS'services'
p1504
I1
sg951
I1
sS'documented'
p1505
I1
sS'ballena'
p1506
I1
sg397
I1
sg85
I1
sS'transition'
p1507
I1
sS'roof'
p1508
I1
sg257
I1
sS'politically'
p1509
I1
ssS'00308'
p1510
(dp1511
g1064
I1
sS'deck'
p1512
I2
sg6
I1
sg79
I1
sg1441
I1
sg132
I1
sS'middle'
p1513
I1
sg925
I1
sS'economic'
p1514
I1
sg912
I1
sg951
I1
sg1405
I1
sS'charting'
p1515
I1
sS'tumultuous'
p1516
I1
sg1089
I1
sS'hand-painted'
p1517
I2
sg259
I1
sS'collectively'
p1518
I1
sg249
I1
sg1129
I1
sg538
I1
sg231
I2
sS'depicted'
p1519
I1
sS'worldviews'
p1520
I1
sS'decks'
p1521
I1
sg887
I1
sS'core'
p1522
I1
sS'north'
p1523
I1
sg768
I1
sg80
I1
sS'secular'
p1524
I1
sg1351
I1
sg593
I1
sS'survived'
p1525
I1
sg242
I1
sS'fifteenth-century'
p1526
I1
sS'earliest'
p1527
I1
sS'change'
p1528
I1
sS'intriguing'
p1529
I1
sS'tarot'
p1530
I1
sg85
I2
sS'cloisters'
p1531
I2
sg1507
I1
sg1187
I1
sS'woodblock'
p1532
I1
sg61
I1
sg182
I1
sg1235
I6
sg886
I1
sS'engraved'
p1533
I1
sS'playing'
p1534
I2
sS'sixteenth'
p1535
I1
sS'italian'
p1536
I1
ssS'00309'
p1537
(dp1538
S'gold'
p1539
I1
sg1044
I2
sg711
I1
sS'infrared'
p1540
I1
sS'miniscule'
p1541
I1
sg574
I1
sS'rotterdam'
p1542
I2
sg16
I1
sS'very'
p1543
I1
sS'boijmans'
p1544
I1
sS'reflectography'
p1545
I1
sg176
I1
sS'wings'
p1546
I1
sS'regarding'
p1547
I1
sS'always'
p1548
I1
sg85
I1
sg1193
I1
sS'beneath'
p1549
I1
sS'lettering'
p1550
I1
sS'findings'
p1551
I1
sg1416
I1
sS'frame'
p1552
I1
sS'closer'
p1553
I1
sg214
I5
sS'demonstrates'
p1554
I1
sS'triptych'
p1555
I1
sS'long-standing'
p1556
I1
sg153
I1
sS'latin'
p1557
I1
sS'recently'
p1558
I1
sS'clues'
p1559
I1
sS'crucifixion'
p1560
I4
sS'diptych'
p1561
I1
sg1079
I2
sS'technical'
p1562
I1
sS'introduces'
p1563
I1
sg1268
I1
sS'flemish'
p1564
I1
sg1201
I1
sS'frames'
p1565
I4
sS'tabernacle'
p1566
I1
sS'affords'
p1567
I1
sS'jan'
p1568
I2
sS'undergone'
p1569
I1
sg1368
I3
sS'script'
p1570
I1
sg1128
I1
sS'judgment'
p1571
I2
sg822
I1
sg76
I2
sS'workshop'
p1572
I1
sS'opposed'
p1573
I1
sS'function'
p1574
I1
sg923
I1
sS'relationship'
p1575
I1
sg470
I1
sg289
I1
sS'albeit'
p1576
I1
sS'overpaint'
p1577
I1
sS'look'
p1578
I1
sg957
I2
sg847
I1
sS'compare'
p1579
I1
sS'x-radiography'
p1580
I1
sS'flat'
p1581
I1
sS'gothic'
p1582
I1
sS"metropolitan's"
p1583
I1
sS'damaged'
p1584
I1
sg80
I1
sg107
I2
sS'doors'
p1585
I1
sg827
I1
sS'mysteries'
p1586
I1
sS'rediscovered'
p1587
I1
sg690
I1
sS'investigations'
p1588
I1
sS'may'
p1589
I1
sS'eyck'
p1590
I2
sS'cove'
p1591
I1
sS'revealed'
p1592
I1
sg700
I1
sS"paintings'"
p1593
I1
sS'underdrawings'
p1594
I1
sS'pastiglia'
p1595
I1
sg121
I1
sg853
I1
sS'beuningen'
p1596
I1
sg152
I1
sS'solve'
p1597
I1
sS'opportunity'
p1598
I1
sg410
I2
ssS'00306'
p1599
(dp1600
g939
I1
sg370
I1
sg6
I1
sg270
I1
sS'lavish'
p1601
I1
sS'shape'
p1602
I1
sS'clocks'
p1603
I3
sS'technologies'
p1604
I1
sS'exteriors'
p1605
I1
sS'personal'
p1606
I1
sS'complex'
p1607
I1
sS'adornment'
p1608
I1
sg18
I1
sS'watch'
p1609
I1
sS'enamelers'
p1610
I1
sS'horology'
p1611
I1
sS'drawn'
p1612
I1
sS'telling'
p1613
I1
sg1249
I1
sg953
I1
sg201
I1
sg1548
I1
sS'clockmaking'
p1614
I1
sS'craftsmanship'
p1615
I1
sS'contain'
p1616
I1
sS'silversmiths'
p1617
I1
sS'exquisite'
p1618
I1
sg327
I1
sS'right'
p1619
I1
sg317
I1
sS'phones'
p1620
I1
sg1046
I1
sS'us'
p1621
I1
sg962
I1
sg1460
I1
sS'wonder'
p1622
I1
sS'even'
p1623
I1
sS'jewelry'
p1624
I1
sS'clock'
p1625
I1
sg1253
I1
sS'deeply'
p1626
I1
sS'access'
p1627
I1
sg340
I1
sS'thriving'
p1628
I1
sS'chasers'
p1629
I1
sg890
I1
sS'mechanisms'
p1630
I1
sg51
I1
sS'extraordinary'
p1631
I1
sg1144
I1
sg497
I2
sS'complicated'
p1632
I1
sS'timekeepers'
p1633
I4
sg1132
I1
sS'items'
p1634
I1
sS'computers'
p1635
I1
sg968
I1
sg846
I1
sS'examining'
p1636
I1
sS'artistry'
p1637
I1
sg756
I1
sS'market'
p1638
I1
sS'brilliantly'
p1639
I1
sg763
I1
sS'ingenuity'
p1640
I1
sg867
I5
sS'tell'
p1641
I1
sg1281
I1
sg1574
I1
sg1535
I1
sS'dialogue'
p1642
I1
sS'treasured'
p1643
I1
sg80
I1
sS'fascination'
p1644
I1
sS'nobody'
p1645
I1
sS'aware'
p1646
I1
sS'tasked'
p1647
I1
sS'cases'
p1648
I1
sS'producing'
p1649
I1
sg929
I1
sS'clockmakers'
p1650
I1
sg83
I1
sg85
I1
sg245
I1
sS'accommodating'
p1651
I1
sS'value'
p1652
I1
sS'marriage'
p1653
I1
sg92
I1
sS'distinguished'
p1654
I1
sg299
I2
sg1412
I1
sS'persists'
p1655
I1
sg249
I1
sS'almost'
p1656
I1
sS'watches'
p1657
I3
sS'exterior'
p1658
I1
sg682
I1
sg274
I1
sS'goldsmiths'
p1659
I1
sS'needs'
p1660
I1
sg1575
I1
sS'imbued'
p1661
I1
sS'cabinetmakers'
p1662
I1
sS'internal'
p1663
I1
sS'functionality'
p1664
I1
sS'luxury'
p1665
I2
sS'pure'
p1666
I1
sS'out'
p1667
I1
sg886
I2
sg1028
I1
sS'conceived'
p1668
I1
sS'mechanical'
p1669
I1
sS'engravers'
p1670
I1
sS'craftsmen'
p1671
I1
sg1469
I1
sS'gilders'
p1672
I1
sS'timekeeping'
p1673
I1
sS'english'
p1674
I1
sS'swiss'
p1675
I1
sg1081
I1
sS'once'
p1676
I1
ssS'00307'
p1677
(dp1678
S'incorporate'
p1679
I1
sg6
I1
sg1323
I1
sg192
I1
sS'london'
p1680
I1
sg193
I2
sS'remarkably'
p1681
I1
sS'belfast'
p1682
I1
sS'majority'
p1683
I1
sg460
I1
sg310
I1
sg231
I1
sS'conjurer'
p1684
I1
sS'microscopic'
p1685
I1
sg1327
I1
sS'main'
p1686
I1
sg16
I1
sS'leipzig'
p1687
I1
sS'boasted'
p1688
I1
sg1180
I1
sg468
I1
sS'words'
p1689
I1
sS'hands'
p1690
I1
sS'day'
p1691
I1
sS'condition'
p1692
I1
sS'clientele'
p1693
I1
sS'fairs'
p1694
I1
sS'inns'
p1695
I1
sg317
I1
sS'ten'
p1696
I1
sg331
I1
sg528
I1
sg483
I1
sS'calligrapher'
p1697
I1
sS'exploited'
p1698
I1
sS'celebrated'
p1699
I1
sS'ricky'
p1700
I1
sS'flowing'
p1701
I1
sg1612
I1
sg1134
I1
sg1260
I1
sg1342
I1
sS'ancient'
p1702
I1
sS'members'
p1703
I1
sg173
I1
sg58
I1
sg1267
I1
sS'jay'
p1704
I1
sg1606
I1
sg61
I1
sg226
I1
sg756
I1
sg146
I1
sS'matthias'
p1705
I1
sg1019
I1
sS'commandments'
p1706
I1
sS'feet'
p1707
I1
sS'texts'
p1708
I1
sS'primarily'
p1709
I1
sS'kings'
p1710
I1
sS'standing'
p1711
I1
sg1277
I1
sS'twenty-nine'
p1712
I1
sS'typography'
p1713
I1
sS'arms'
p1714
I1
sS'master'
p1715
I1
sS'buchinger'
p1716
I2
sS'inches'
p1717
I1
sS'jewish'
p1718
I1
sS'musician'
p1719
I1
sg242
I1
sg896
I1
sS'inscriptions'
p1720
I1
sg1057
I1
sg1187
I1
sS'coats'
p1721
I1
sS'draftsman'
p1722
I1
sS'visited'
p1723
I1
sS'performer'
p1724
I1
sg127
I1
sg1379
I1
sg1441
I1
sS'emperors'
p1725
I1
sS'high'
p1726
I1
sg1513
I1
sg813
I1
sS'micrography'
p1727
I1
sS'author'
p1728
I1
sS'calligraphic'
p1729
I1
sg107
I1
sg278
I1
sS'noblemen'
p1730
I1
sS'build'
p1731
I1
sS'play'
p1732
I1
sg1028
I1
sS'triumphs'
p1733
I1
sg110
I1
sg112
I1
sS'magician'
p1734
I1
sS'man'
p1735
I1
sg794
I1
sS'so-called'
p1736
I1
sS'lines'
p1737
I1
sS'without'
p1738
I1
sg257
I1
sg867
I2
ssS'00304'
p1739
(dp1740
S'photoshop'
p1741
I1
sg1443
I1
sS'being'
p1742
I2
sS'battleship'
p1743
I1
sg140
I1
sg1602
I1
sS'serving'
p1744
I1
sS'seamless'
p1745
I1
sS'networks'
p1746
I1
sS'chimes'
p1747
I1
sS'title'
p1748
I1
sg1607
I1
sS'shaping'
p1749
I1
sg1372
I1
sS'deepest'
p1750
I1
sg1027
I1
sS'existences'
p1751
I1
sg719
I1
sS'rise'
p1752
I1
sg152
I1
sS'foot'
p1753
I1
sg1227
I1
sg1692
I1
sS'cognition'
p1754
I1
sS'collective'
p1755
I1
sS'unstable'
p1756
I1
sg33
I1
sS'page'
p1757
I1
sS'silently'
p1758
I1
sS'old'
p1759
I1
sg1416
I1
sS'thirteenth'
p1760
I1
sS'terrain'
p1761
I1
sg1047
I1
sg271
I1
sS'sea'
p1762
I1
sg209
I1
sg962
I2
sS'indirect'
p1763
I1
sS'ourselves'
p1764
I2
sS'viral'
p1765
I1
sS'invisibly'
p1766
I1
sS'opened'
p1767
I1
sS'robert'
p1768
I1
sS'cameras'
p1769
I1
sS'bifurcated'
p1770
I1
sS'reconstruction'
p1771
I1
sS'internet'
p1772
I1
sg153
I2
sg1259
I1
sS'perception'
p1773
I1
sg1558
I1
sg144
I1
sS'menschel'
p1774
I1
sS'interface'
p1775
I1
sg173
I1
sS'fifteen'
p1776
I1
sg1528
I1
sg1079
I1
sS'appendages'
p1777
I1
sg1399
I1
sg182
I1
sg1176
I1
sS'addresses'
p1778
I1
sg806
I1
sg132
I1
sS'accommodate'
p1779
I1
sS'joyce'
p1780
I1
sS'constantly'
p1781
I1
sg76
I1
sS'least'
p1782
I1
sS'prescient'
p1783
I1
sS'taken'
p1784
I1
sS'interests'
p1785
I1
sg372
I2
sg1575
I1
sS'bodily'
p1786
I1
sS'subjective'
p1787
I1
sg470
I1
sS'representative'
p1788
I1
sg58
I1
sg773
I1
sS'realities'
p1789
I1
sS'photograph'
p1790
I1
sg83
I1
sS'folding'
p1791
I1
sg85
I1
sS'while'
p1792
I1
sS'obvious'
p1793
I1
sg384
I2
sS'collecting'
p1794
I1
sS'swim'
p1795
I1
sS'seven'
p1796
I1
sS'recesses'
p1797
I1
sg1656
I1
sS'mishaps'
p1798
I1
sg79
I1
sS'reconstructed'
p1799
I1
sg394
I1
sS'viewed'
p1800
I1
sS'dazzle'
p1801
I1
sg616
I1
sg536
I1
sS'accelerated'
p1802
I1
sS'camouflage'
p1803
I1
sg1051
I1
sS'useless'
p1804
I1
sS'digital'
p1805
I2
sg541
I1
sS'cyberspace'
p1806
I1
sg1223
I1
sS'felt'
p1807
I1
sg1737
I1
sS'daily'
p1808
I1
sg1108
I1
sS'wwii'
p1809
I1
sS'remapped'
p1810
I1
sS'snapshot'
p1811
I1
sS'things'
p1812
I1
sS'notion'
p1813
I1
ssS'00305'
p1814
(dp1815
S'summer'
p1816
I1
sg871
I1
sg564
I1
sg1146
I1
sg8
I1
sS'encompasses'
p1817
I1
sg231
I1
sS'transformed'
p1818
I1
sS'kingdom'
p1819
I1
sg315
I1
sg1421
I1
sS'continues'
p1820
I1
sS'boxes'
p1821
I1
sg176
I1
sg1425
I1
sS'accidentally'
p1822
I1
sg1251
I1
sg1618
I1
sS'sixty-five'
p1823
I1
sg327
I1
sS'significantly'
p1824
I1
sS'inlaid'
p1825
I1
sg330
I1
sg602
I1
sg732
I1
sS'trends'
p1826
I1
sg1123
I1
sS'catalogued'
p1827
I1
sg1418
I1
sg214
I1
sg297
I1
sS'distinctive'
p1828
I1
sg1699
I1
sS'markers'
p1829
I1
sS'behind'
p1830
I1
sS'burke'
p1831
I1
sg1138
I2
sg1177
I2
sg1342
I1
sg1144
I1
sg497
I1
sg55
I1
sg219
I1
sS'dubbed'
p1832
I1
sS'drama'
p1833
I1
sS'striking'
p1834
I1
sS'mistakenly'
p1835
I1
sS'pop'
p1836
I1
sS'florence'
p1837
I1
sg1277
I1
sg113
I1
sS'joseon'
p1838
I1
sg1279
I1
sS'music'
p1839
I1
sS'too'
p1840
I1
sS'deliberately'
p1841
I1
sg1378
I1
sg1281
I1
sg1414
I1
sS'irving'
p1842
I1
sg1031
I2
sg242
I1
sS'ware'
p1843
I1
sS'appreciated'
p1844
I1
sg896
I1
sg897
I1
sg881
I1
sS'griggs'
p1845
I1
sS'stories'
p1846
I1
sg92
I1
sg1012
I1
sg1069
I1
sS'mid-seventeenth-century'
p1847
I1
sg79
I1
sS'imagination'
p1848
I1
sS'sixteenth-century'
p1849
I1
sS'mother-of-pearl'
p1850
I1
sg785
I1
sS'capture'
p1851
I1
sS'bodhisattva'
p1852
I1
sS'buddhist'
p1853
I1
sg107
I1
sg1800
I1
sS'gilt-wood'
p1854
I1
sg541
I1
sS'korean'
p1855
I3
sS'evolve'
p1856
I1
sg891
I1
sg169
I1
sS'statue'
p1857
I1
sS'metalwork'
p1858
I1
sg700
I1
sS'possessed'
p1859
I1
sS'sometimes'
p1860
I2
sg261
I1
sg121
I1
sg1016
I1
ssS'00302'
p1861
(dp1862
g561
I1
sg1308
I1
sS'ceramic'
p1863
I1
sS'tombs'
p1864
I1
sS'joanne'
p1865
I1
sg8
I1
sS'relationships'
p1866
I1
sg979
I1
sg1171
I1
sg196
I1
sS'permanent'
p1867
I1
sg280
I2
sg1179
I1
sg1101
I1
sS'sheds'
p1868
I1
sg176
I1
sg1691
I1
sS'mystery'
p1869
I1
sS'minimalist'
p1870
I1
sS'did'
p1871
I1
sS'posts'
p1872
I1
sg56
I1
sg1251
I1
sg592
I1
sS'temples'
p1873
I1
sg74
I1
sg480
I1
sg965
I2
sg330
I1
sS'dead'
p1874
I1
sS'convey'
p1875
I1
sS'home'
p1876
I1
sS'divine'
p1877
I1
sS'small-scale'
p1878
I1
sS'living'
p1879
I1
sS'critical'
p1880
I1
sS'millennium'
p1881
I1
sS'provides'
p1882
I1
sS'arrival'
p1883
I1
sg624
I1
sg1144
I1
sg497
I1
sg625
I2
sg966
I1
sS'stone'
p1884
I1
sg219
I1
sS'blogs'
p1885
I1
sg1231
I1
sg356
I1
sg1267
I1
sS'ritual'
p1886
I1
sS'americas'
p1887
I1
sg634
I1
sS'miniature'
p1888
I1
sg265
I1
sg61
I1
sS'incas'
p1889
I1
sS'pillsbury'
p1890
I1
sg909
I1
sg1702
I3
sS'populated'
p1891
I1
sS'wood'
p1892
I1
sS'peru'
p1893
I3
sS'survive'
p1894
I1
sS'structures'
p1895
I1
sg1535
I1
sS'funerary'
p1896
I1
sg1503
I1
sg331
I1
sg896
I1
sg381
I1
sg578
I1
sS'join'
p1897
I1
sg1578
I1
sg85
I2
sS'placed'
p1898
I1
sS'aztecs'
p1899
I1
sS'beliefs'
p1900
I1
sg299
I1
sS'civilizations'
p1901
I1
sg1069
I1
sg249
I1
sg865
I2
sg390
I1
sS'trip'
p1902
I1
sS'mediating'
p1903
I1
sg104
I2
sS'afterlife'
p1904
I1
sg854
I1
sg222
I1
sg107
I1
sg1293
I1
sS'europeans'
p1905
I1
sS'practice'
p1906
I1
sg691
I1
sS'complexes'
p1907
I1
sg169
I1
sg1166
I1
sS'predecessors'
p1908
I1
sg406
I1
sS'pageantry'
p1909
I1
sg407
I1
sg1808
I1
sS'components'
p1910
I1
ssS'00303'
p1911
(dp1912
S'terras'
p1913
I1
sS'borderlands'
p1914
I1
sS"ractliffe's"
p1915
I2
sS'ocupado'
p1916
I1
sg711
I1
sg140
I1
sg191
I1
sS"region's"
p1917
I1
sS'desolate'
p1918
I1
sg8
I1
sS"capital's"
p1919
I1
sg307
I1
sS'photographer'
p1920
I1
sS'histories'
p1921
I2
sS'coincide'
p1922
I1
sS'location'
p1923
I1
sS'sent'
p1924
I1
sS'fim'
p1925
I1
sg1027
I1
sS'do'
p1926
I2
sS'erasure'
p1927
I1
sg129
I1
sg316
I1
sS'pigment'
p1928
I1
sg1101
I1
sg951
I3
sS'silver'
p1929
I1
sg583
I1
sS'produced'
p1930
I2
sS'apartheid'
p1931
I1
sS'angolan'
p1932
I2
sS'continue'
p1933
I1
sS'namibia'
p1934
I1
sg851
I1
sS'instability'
p1935
I1
sS'angola'
p1936
I4
sS'specially'
p1937
I1
sg480
I4
sS'kongo'
p1938
I1
sS'displacement'
p1939
I2
sg621
I1
sg209
I1
sS'photographed'
p1940
I1
sg1073
I1
sg612
I1
sS'militarized'
p1941
I1
sS'colonial'
p1942
I1
sS'selected'
p1943
I1
sg433
I1
sS'ractliffe'
p1944
I3
sS'either'
p1945
I1
sS'ex-soldiers'
p1946
I1
sS'luanda'
p1947
I1
sg1343
I1
sg585
I1
sg496
I1
sg192
I1
sS'jo'
p1948
I1
sS'unfold'
p1949
I1
sS'civilians'
p1950
I1
sS"angola's"
p1951
I1
sS'aftermath'
p1952
I1
sS'returning'
p1953
I1
sg1527
I1
sS'terreno'
p1954
I1
sg763
I1
sS'gelatin'
p1955
I1
sg629
I1
sS'tracing'
p1956
I1
sg968
I2
sS'military'
p1957
I1
sS'south'
p1958
I5
sg226
I3
sS'majesty'
p1959
I1
sS'civil'
p1960
I2
sS'shantytowns'
p1961
I1
sS'traveled'
p1962
I1
sS"africa's"
p1963
I1
sS'consecutively'
p1964
I1
sg1167
I1
sS'service'
p1965
I1
sS'army'
p1966
I1
sS'engagement'
p1967
I1
sg822
I1
sg1129
I3
sS'camera'
p1968
I1
sS'memory'
p1969
I2
sS'fought'
p1970
I2
sS'borders'
p1971
I1
sg78
I3
sg1281
I1
sg1535
I1
sg1575
I1
sg82
I1
sS'wars'
p1972
I2
sg470
I1
sg773
I1
sS'directed'
p1973
I1
sg83
I1
sS'abandoned'
p1974
I1
sS'places'
p1975
I1
sg85
I3
sg847
I1
sg356
I1
sg815
I1
sg1792
I1
sS'archival'
p1976
I1
sg298
I1
sS'toward'
p1977
I1
sg1038
I2
sS'address'
p1978
I1
sg299
I1
sg1476
I1
sS'inkjet'
p1979
I1
sg86
I1
sg96
I1
sg595
I1
sS'mundo'
p1980
I1
sS'periods'
p1981
I1
sg394
I1
sS'present-day'
p1982
I2
sS'border'
p1983
I1
sS'cotton'
p1984
I1
sg105
I1
sS'occupied'
p1985
I2
sg1001
I1
sS'africans'
p1986
I1
sg1607
I1
sS'deepening'
p1987
I1
sS'struggled'
p1988
I1
sS'conflict'
p1989
I1
sg1296
I1
sS'countryside'
p1990
I1
sg258
I1
sg700
I2
sS'land'
p1991
I1
sS'attempt'
p1992
I1
sS'unspoken'
p1993
I1
sg117
I1
sS'african'
p1994
I3
sg1081
I1
sS'boyfriends'
p1995
I1
ssS'00301'
p1996
(dp1997
g1308
I1
sg1742
I1
sS'queen'
p1998
I1
sS'elisabeth'
p1999
I1
sS'four'
p2000
I1
sg1242
I1
sS'devoted'
p2001
I1
sS'le'
p2002
I2
sS'louise'
p2003
I1
sg460
I2
sg881
I1
sS'painters'
p2004
I1
sg151
I1
sS'petersburg'
p2005
I1
sS'di'
p2006
I1
sg833
I2
sg951
I1
sS'accepted'
p2007
I1
sS'flee'
p2008
I1
sS'association'
p2009
I1
sS'sittings'
p2010
I1
sS'success'
p2011
I1
sS'skills'
p2012
I1
sS'married'
p2013
I1
sS'admitted'
p2014
I1
sS'luca'
p2015
I1
sS'acad'
p2016
I1
sS'achieved'
p2017
I1
sS'portraitist'
p2018
I1
sS'obliged'
p2019
I1
sS'turbulent'
p2020
I1
sS'elected'
p2021
I1
sS'et'
p2022
I1
sg1121
I1
sg214
I1
sS'sitters'
p2023
I1
sS'accademia'
p2024
I1
sS'antoinette'
p2025
I1
sg1260
I1
sg851
I7
sg887
I1
sg51
I1
sS'understanding'
p2026
I1
sg1703
I2
sg54
I1
sS'royale'
p2027
I1
sS'eventful'
p2028
I1
sS'peinture'
p2029
I1
sg1562
I1
sg386
I1
sS'times'
p2030
I1
sg265
I1
sS'exhibited'
p2031
I1
sg1064
I1
sS'vig'
p2032
I2
sS'profession'
p2033
I1
sg131
I1
sg132
I3
sS'sympathy'
p2034
I1
sS'because'
p2035
I1
sg1837
I1
sS'intervention'
p2036
I1
sg1371
I1
sS'leading'
p2037
I1
sS'france'
p2038
I3
sS'brun'
p2039
I2
sg1322
I1
sS'naples'
p2040
I2
sg156
I1
sS'families'
p2041
I1
sg769
I1
sg1178
I1
sS'berlin'
p2042
I1
sg143
I1
sg380
I2
sg1962
I1
sg1792
I1
sg92
I1
sS'russia'
p2043
I1
sg299
I1
sg780
I1
sg79
I1
sS'prestigious'
p2044
I1
sS'autodidact'
p2045
I1
sg1981
I1
sS'exile'
p2046
I1
sS'dealer'
p2047
I1
sS'salons'
p2048
I1
sS'italy'
p2049
I1
sg1953
I1
sS'prussia'
p2050
I1
sg886
I2
sg399
I1
sS'eighty'
p2051
I1
sg891
I1
sg258
I2
sS'membership'
p2052
I1
sg169
I1
sS'marie'
p2053
I1
sS'independently'
p2054
I1
sS'kept'
p2055
I1
sS'nevertheless'
p2056
I1
sg1012
I1
sg118
I1
sg868
I1
ssS'00333'
p2057
(dp2058
S'gown'
p2059
I1
sS'haute'
p2060
I5
sg272
I1
sS'costume'
p2061
I3
sS'laminating'
p2062
I1
sg959
I1
sS'discordant'
p2063
I1
sS'ground'
p2064
I1
sS'machine'
p2065
I2
sS'ensembles'
p2066
I2
sS'reconciling'
p2067
I1
sg432
I1
sS'worth'
p2068
I1
sg1321
I1
sg833
I1
sS'cutting'
p2069
I1
sS'emergence'
p2070
I1
sg580
I1
sS'chanel'
p2071
I1
sS'processes'
p2072
I1
sS'level'
p2073
I1
sS'industrialization'
p2074
I1
sg860
I4
sS'prototypes'
p2075
I1
sS'machine-made'
p2076
I1
sS'x'
p2077
I1
sS'pleating'
p2078
I1
sS'dichotomy'
p2079
I1
sS'spring'
p2080
I1
sg1046
I1
sS'couture'
p2081
I6
sS'computer'
p2082
I1
sS'manus'
p2083
I1
sS'ready-to-wear'
p2084
I3
sS'lehman'
p2085
I2
sg1768
I2
sS'artificial'
p2086
I1
sg1453
I1
sS'unravel'
p2087
I1
sS'embroidery'
p2088
I1
sg1134
I1
sS'anna'
p2089
I2
sS'contrasting'
p2090
I1
sg286
I1
sS'modeling'
p2091
I1
sS're-examine'
p2092
I1
sg1144
I2
sS'distinction'
p2093
I2
sg638
I1
sS'tools'
p2094
I1
sS'wintour'
p2095
I2
sg822
I1
sS'conundrum'
p2096
I1
sS'leatherwork'
p2097
I1
sS"institute's"
p2098
I1
sg480
I1
sg282
I2
sS'suit'
p2099
I1
sg1150
I1
sg1115
I1
sg896
I1
sS'case'
p2100
I1
sS'laser'
p2101
I1
sg1578
I1
sg776
I1
sS'dressmaking'
p2102
I1
sg90
I1
sS'welding'
p2103
I1
sS'fashion'
p2104
I1
sS'toiles'
p2105
I1
sg249
I1
sg250
I1
sg96
I1
sS'ultrasonic'
p2106
I1
sg275
I1
sS'tailoring'
p2107
I1
sS'handmade'
p2108
I1
sS'onset'
p2109
I1
sS'maison'
p2110
I1
sS'machina'
p2111
I1
sS'circular'
p2112
I1
sS'knitting'
p2113
I1
sg546
I3
sS'bonding'
p2114
I1
sS'featherwork'
p2115
I1
sS'lacework'
p2116
I1
sg552
I2
sS'resemble'
p2117
I1
sS'ateliers'
p2118
I1
sg1407
I1
sg261
I2
sg722
I1
sS'mass'
p2119
I1
sS'wing'
p2120
I2
ssS'00332'
p2121
(dp2122
S'unified'
p2123
I1
sS'traditions'
p2124
I1
sg1241
I1
sS'turkic'
p2125
I1
sg1146
I1
sg1930
I2
sS'zangids'
p2126
I1
sg876
I1
sg1089
I1
sS'spurring'
p2127
I1
sg1242
I1
sg459
I1
sg428
I1
sg881
I1
sg151
I2
sS'under'
p2128
I2
sS'conquest'
p2129
I1
sS'northeastern'
p2130
I1
sS'spectacular'
p2131
I1
sS'advances'
p2132
I1
sg228
I1
sg168
I1
sg1327
I1
sS'successor'
p2133
I2
sg364
I1
sS'backgrounds'
p2134
I1
sS'perso-arabo-islamic'
p2135
I1
sg192
I1
sS'response'
p2136
I1
sg2035
I1
sg1760
I1
sg1116
I1
sg732
I1
sg1514
I1
sg924
I4
sS'empire'
p2137
I1
sg1123
I1
sS'anatolia'
p2138
I2
sg44
I1
sS'turkmenistan'
p2139
I4
sS'consumers'
p2140
I1
sg1828
I1
sg1130
I1
sg281
I1
sg469
I1
sg1260
I1
sS'contrast'
p2141
I1
sS'christian'
p2142
I2
sS'exchange'
p2143
I1
sg1262
I1
sg497
I2
sS'armenian'
p2144
I1
sg54
I1
sS'flowering'
p2145
I1
sS'iraq'
p2146
I2
sg966
I1
sS'stucco'
p2147
I1
sS'patronage'
p2148
I2
sg1352
I2
sS'goods'
p2149
I1
sg1132
I1
sS'flourished'
p2150
I1
sg356
I1
sg1080
I1
sg1035
I2
sS'stretching'
p2151
I1
sS'seljuqs'
p2152
I6
sg104
I1
sg265
I1
sS'prospered'
p2153
I1
sS'patrons'
p2154
I1
sg934
I2
sS'successors'
p2155
I1
sS'southeastern'
p2156
I1
sS'jazira'
p2157
I1
sS'origin'
p2158
I1
sS'immigrated'
p2159
I1
sS'lands'
p2160
I1
sS'artuqids'
p2161
I1
sg128
I2
sg129
I1
sS'corresponds'
p2162
I1
sg131
I1
sg132
I1
sS'eleventh'
p2163
I1
sg1638
I1
sS'turkey'
p2164
I2
sS'area'
p2165
I1
sg916
I1
sg235
I1
sS'permitted'
p2166
I1
sS'cultures'
p2167
I1
sS'territory'
p2168
I1
sS'synthesis'
p2169
I1
sS'controlled'
p2170
I3
sS'byzantine'
p2171
I1
sg1414
I1
sg463
I1
sS'immediate'
p2172
I1
sg518
I1
sg1031
I1
sg897
I1
sg526
I1
sS'mongol'
p2173
I1
sg299
I1
sS'iconography'
p2174
I1
sS'crusader'
p2175
I1
sg249
I1
sS'advancements'
p2176
I1
sS'seljuq'
p2177
I3
sg865
I1
sg1513
I2
sg98
I2
sg1981
I1
sg1982
I1
sg682
I1
sg1292
I1
sS'prosperity'
p2178
I1
sS'marking'
p2179
I1
sS'productive'
p2180
I1
sS'realm'
p2181
I2
sS'predominantly'
p2182
I1
sS'parts'
p2183
I1
sg1665
I1
sS'dynasties'
p2184
I2
sg886
I1
sS'independent'
p2185
I1
sg1499
I1
sg258
I1
sS'islamic'
p2186
I1
sg169
I1
sS'conquered'
p2187
I1
sg1858
I1
sS'class'
p2188
I1
sS'turkmen'
p2189
I1
sS'short'
p2190
I1
sS'branches'
p2191
I1
sS'nomadic'
p2192
I1
sS'rule'
p2193
I2
sg257
I1
sg861
I1
sg867
I2
sS'landmark'
p2194
I1
sS'institutions'
p2195
I1
sg1016
I1
ssS'00331'
p2196
(dp2197
S'distances'
p2198
I1
sg1539
I1
sg711
I1
sg1199
I1
sg1130
I1
sg1242
I1
sS'gems'
p2199
I1
sg10
I1
sS'death'
p2200
I1
sS'retinue'
p2201
I1
sg881
I1
sg1818
I1
sg1053
I1
sS'alexander'
p2202
I1
sg19
I1
sg168
I1
sS'historic'
p2203
I1
sg1146
I1
sS'ruled'
p2204
I1
sS'represents'
p2205
I1
sg323
I1
sS'countries'
p2206
I1
sg725
I1
sS'attalid'
p2207
I1
sS'comprise'
p2208
I1
sg1533
I1
sg249
I1
sg317
I1
sg279
I1
sg330
I1
sg910
I1
sg912
I1
sS'greece'
p2209
I1
sg2137
I2
sg611
I1
sg1624
I1
sS'hellenistic'
p2210
I4
sg1699
I1
sS'vessels'
p2211
I1
sg433
I1
sg469
I1
sg492
I1
sg436
I1
sS'achievements'
p2212
I1
sg2143
I1
sg1262
I1
sg497
I1
sS'represented'
p2213
I1
sS'precious'
p2214
I1
sg55
I1
sg2148
I2
sg1352
I2
sg356
I1
sg1562
I1
sS'kingdoms'
p2215
I1
sg634
I1
sS'roman'
p2216
I2
sg2155
I1
sg641
I1
sS'coins'
p2217
I1
sS'tunisia'
p2218
I1
sS'pergamon'
p2219
I3
sg128
I1
sg1710
I1
sS'prominent'
p2220
I1
sg2164
I1
sg510
I2
sg1702
I3
sS'wealth'
p2221
I1
sS'terracotta'
p2222
I1
sg1129
I1
sg235
I1
sg979
I1
sg151
I1
sS'minor'
p2223
I1
sg518
I1
sg2042
I1
sS'courts'
p2224
I1
sS"alexander's"
p2225
I2
sg242
I1
sg1637
I1
sg578
I2
sS'bergama'
p2226
I1
sS'morocco'
p2227
I1
sg90
I1
sS'marble'
p2228
I1
sg1069
I1
sS'outstanding'
p2229
I1
sg678
I1
sS'one-third'
p2230
I1
sS'metals'
p2231
I1
sg865
I2
sg98
I1
sg2193
I1
sg1982
I1
sg104
I2
sg1142
I1
sg536
I1
sg107
I1
sg254
I1
sg2183
I1
sS'republic'
p2232
I1
sS'establishment'
p2233
I1
sg886
I1
sg1073
I1
sS'collaboration'
p2234
I1
sS'enduring'
p2235
I1
sg2049
I1
sg1034
I2
sg117
I1
sS'astonishing'
p2236
I1
sg257
I1
sg867
I1
sg699
I1
sS'conquests'
p2237
I1
sg1016
I1
sS'left'
p2238
I1
ssS'00330'
p2239
(dp2240
g564
I1
sS'mainly'
p2241
I1
sg565
I1
sS'nasreen'
p2242
I1
sg876
I1
sg2002
I1
sg461
I1
sg280
I1
sg1027
I1
sg1870
I1
sS'camus'
p2243
I1
sS'dynamic'
p2244
I1
sg1906
I1
sS'gestures'
p2245
I1
sg200
I1
sg954
I1
sS'sensibilities'
p2246
I1
sg192
I1
sg592
I1
sS'traces'
p2247
I1
sg193
I1
sS'grids'
p2248
I1
sS'adds'
p2249
I1
sg214
I1
sg1554
I1
sg1093
I1
sS'conceptual'
p2250
I1
sg469
I1
sg374
I1
sg1342
I1
sS'expansion'
p2251
I1
sg965
I1
sS'experimenting'
p2252
I1
sS'organic'
p2253
I1
sg356
I1
sg629
I1
sS'mohamedi'
p2254
I1
sg286
I1
sg222
I1
sg1958
I1
sS'emerge'
p2255
I1
sS'outlook'
p2256
I1
sS'narratives'
p2257
I1
sS'subtlety'
p2258
I1
sg132
I1
sS'initiative'
p2259
I1
sg369
I1
sS'classical'
p2260
I1
sg1967
I1
sS'modernism'
p2261
I1
sg1839
I1
sS'modernist'
p2262
I1
sS'post-independence'
p2263
I1
sS"mohamedi's"
p2264
I1
sS'chandigarh'
p2265
I1
sg79
I1
sS'cosmopolitan'
p2266
I1
sg769
I1
sS"corbusier's"
p2267
I1
sg519
I1
sg470
I1
sg1376
I1
sS'sustained'
p2268
I1
sg143
I1
sg896
I1
sS'breuer'
p2269
I1
sS'enabled'
p2270
I1
sg1386
I1
sg299
I1
sS'layer'
p2271
I1
sS'pencil'
p2272
I1
sS'hard-edged'
p2273
I1
sg873
I1
sg865
I1
sg338
I1
sg394
I1
sg104
I1
sS'rilke'
p2274
I1
sS'poetry'
p2275
I1
sg107
I1
sS'draw'
p2276
I1
sg333
I1
sS'diaries'
p2277
I1
sS'singular'
p2278
I1
sS'upon'
p2279
I1
sg258
I1
sg169
I1
sg110
I1
sg794
I1
sg1737
I1
sS'necessitates'
p2280
I1
sg117
I1
sS'complexity'
p2281
I1
ssS'00334'
p2282
(dp2283
S'copts'
p2284
I1
sg2124
I1
sg1089
I1
sg8
I1
sg1242
I1
sS'languages'
p2285
I1
sS'enriched'
p2286
I1
sS'ethiopians'
p2287
I1
sg2128
I1
sg2087
I1
sS'georgians'
p2288
I1
sS'bear'
p2289
I1
sS'records'
p2290
I1
sg168
I1
sS'every'
p2291
I1
sg186
I1
sS'lenders'
p2292
I1
sS'communities'
p2293
I1
sg1749
I2
sS'heaven'
p2294
I1
sS'common'
p2295
I1
sg1082
I1
sS'illuminate'
p2296
I1
sg317
I1
sS'fascinating'
p2297
I1
sg37
I1
sS'streets'
p2298
I1
sg330
I2
sg732
I1
sg1876
I1
sS'witness'
p2299
I1
sg1905
I1
sS'turks'
p2300
I1
sS'greeks'
p2301
I1
sS'crucial'
p2302
I1
sg1215
I1
sg281
I1
sS'shared'
p2303
I1
sg925
I1
sS'persians'
p2304
I1
sS'gathered'
p2305
I1
sg1262
I1
sg497
I1
sg365
I2
sS'sixty'
p2306
I1
sS'dissonant'
p2307
I1
sg966
I1
sS'larger'
p2308
I1
sS'narrow'
p2309
I1
sg2160
I1
sg1129
I1
sS'enlivened'
p2310
I1
sS'lesson'
p2311
I1
sS'jerusalem'
p2312
I3
sg510
I5
sg651
I1
sS'indians'
p2313
I1
sg76
I1
sg979
I1
sS'passed'
p2314
I1
sg2167
I1
sS'syrians'
p2315
I1
sS'hundred'
p2316
I1
sS'holy'
p2317
I1
sS'treasures'
p2318
I1
sS'underestimates'
p2319
I1
sg85
I1
sg529
I1
sg1792
I1
sS'harmonious'
p2320
I1
sg1386
I1
sS'strands'
p2321
I1
sg299
I2
sS'played'
p2322
I2
sS'voices'
p2323
I1
sS'formulation'
p2324
I1
sS'armenians'
p2325
I1
sS'vital'
p2326
I1
sg1293
I2
sg544
I1
sS'worldwide'
p2327
I1
sS'multiple'
p2328
I1
sg962
I1
sS'faiths'
p2329
I2
sS"city's"
p2330
I1
sS'walls'
p2331
I1
sg2281
I1
sS'fact'
p2332
I1
ssS'00324'
p2333
(dp2334
g871
I1
sS'rotations'
p2335
I1
sS'sweep'
p2336
I1
sg1146
I1
sS'fiercely'
p2337
I1
sg975
I1
sg1583
I1
sg140
I1
sg1417
I1
sS'replete'
p2338
I1
sS'calligraphy'
p2339
I1
sg1142
I1
sg214
I1
sg1817
I1
sS'forty'
p2340
I1
sS'scholars'
p2341
I1
sg254
I1
sg1867
I1
sg1327
I1
sg1134
I1
sg2184
I1
sg2199
I1
sS'yuan'
p2342
I1
sS'dragons'
p2343
I1
sS'song'
p2344
I1
sg1145
I1
sg76
I1
sg132
I1
sS'brushed'
p2345
I1
sS'lyrical'
p2346
I1
sg896
I1
sg293
I1
sg1079
I1
sg860
I1
sg1151
I1
sS'meticulous'
p2347
I1
sg264
I1
sg1036
I1
sS'masterpieces'
p2348
I1
sg298
I1
sg121
I2
ssS'00325'
p2349
(dp2350
S'son'
p2351
I1
sS'adorned'
p2352
I1
sg135
I1
sg561
I1
sg1539
I3
sg370
I1
sS'accurate'
p2353
I1
sS'czarina'
p2354
I2
sg455
I1
sS'nominated'
p2355
I1
sg140
I4
sS'rotating'
p2356
I1
sS'russian'
p2357
I4
sS'regiments'
p2358
I1
sS'consists'
p2359
I1
sg570
I1
sg8
I1
sS'caucasus'
p2360
I2
sS'orleans'
p2361
I1
sS'rapidly'
p2362
I1
sS'heiress'
p2363
I1
sg572
I1
sS'mother'
p2364
I2
sS'switzerland'
p2365
I1
sS'cataloging'
p2366
I1
sS'nineteen'
p2367
I1
sS'should'
p2368
I1
sg432
I1
sg151
I2
sS'artisan'
p2369
I3
sS'clipped'
p2370
I1
sS'lodge'
p2371
I1
sg125
I1
sS'easter'
p2372
I6
sg585
I2
sS'spun'
p2373
I1
sg315
I1
sg1320
I1
sg129
I1
sS'appointment'
p2374
I1
sg102
I1
sS'pearl'
p2375
I1
sS'world-renowned'
p2376
I1
sS'read'
p2377
I1
sS'hard'
p2378
I1
sS'empress'
p2379
I2
sg833
I1
sS'virginia'
p2380
I1
sS'blossom'
p2381
I1
sg2290
I1
sS'sections'
p2382
I1
sg1101
I2
sS"world's"
p2383
I1
sg1008
I1
sg951
I1
sg580
I1
sS'botanical'
p2384
I1
sg1929
I2
sS'gem'
p2385
I1
sg2202
I2
sS'gray'
p2386
I3
sS'nicholas'
p2387
I2
sg1370
I1
sS'held'
p2388
I1
sg860
I3
sS'realistic'
p2389
I1
sS'yellow'
p2390
I1
sg851
I3
sg33
I4
sg593
I1
sg594
I2
sg88
I1
sS'enjoy'
p2391
I1
sS'awarded'
p2392
I1
sS'employing'
p2393
I1
sg317
I1
sg37
I1
sg1416
I1
sg1253
I3
sg1046
I1
sS'magnificent'
p2394
I1
sS'stipulation'
p2395
I1
sS'artist-jeweler'
p2396
I1
sS'miniatures'
p2397
I2
sS'lausanne'
p2398
I1
sg1585
I1
sS'traveling'
p2399
I1
sg422
I2
sS'rose-cut'
p2400
I1
sg609
I2
sg1256
I1
sS'cutters'
p2401
I1
sS'luxe'
p2402
I1
sg1418
I1
sS'crown'
p2403
I1
sS'dense'
p2404
I1
sg1624
I2
sS'broad'
p2405
I1
sS'striations'
p2406
I1
sS'faberg'
p2407
I15
sS'medal'
p2408
I1
sS"gray's"
p2409
I1
sS'romanov'
p2410
I2
sS'richmond'
p2411
I1
sg1930
I1
sS'diamonds'
p2412
I3
sg153
I2
sS'geddings'
p2413
I4
sg1260
I2
sS'restoring'
p2414
I1
sS'victory'
p2415
I1
sg345
I1
sg491
I1
sS'object'
p2416
I1
sS'schedule'
p2417
I1
sS'initially'
p2418
I1
sS'screen'
p2419
I2
sS'nashville'
p2420
I1
sS'iconic'
p2421
I1
sg1420
I1
sS'leaves'
p2422
I1
sS'characteristic'
p2423
I1
sg1265
I1
sg497
I3
sg145
I1
sS'carl'
p2424
I3
sS'alexandra'
p2425
I1
sS'cheekwood'
p2426
I1
sg1349
I1
sg930
I1
sg502
I1
sS'honorary'
p2427
I1
sS'lilies-of-the-valley'
p2428
I3
sS'talented'
p2429
I1
sg356
I2
sS'napoleonic'
p2430
I2
sS'pearls'
p2431
I1
sg357
I1
sS'favorite'
p2432
I3
sS'visionary'
p2433
I1
sS'bears'
p2434
I1
sg744
I1
sS'atelier'
p2435
I1
sS'palaces'
p2436
I1
sS'adored'
p2437
I1
sg183
I1
sS'hunting'
p2438
I1
sS'setters'
p2439
I1
sS'lily-of-the-valley'
p2440
I1
sg1064
I1
sS'polished'
p2441
I1
sg146
I3
sS'twelve'
p2442
I1
sg128
I1
sS"father's"
p2443
I1
sg131
I1
sg132
I1
sS'brought'
p2444
I1
sg508
I1
sS'revolution'
p2445
I1
sS'comprises'
p2446
I1
sS'refined'
p2447
I1
sS'jeweler'
p2448
I1
sg1365
I1
sg1366
I1
sS'czar'
p2449
I5
sS'dowager'
p2450
I2
sg1702
I1
sS'fused'
p2451
I1
sS'pan-russian'
p2452
I1
sg1279
I1
sg1326
I1
sS'unknown'
p2453
I1
sS'apartments'
p2454
I1
sg1129
I3
sg1131
I11
sS'retreats'
p2455
I1
sg1291
I1
sS'the-valley'
p2456
I1
sg2314
I1
sS'tea'
p2457
I1
sg1818
I1
sg2316
I1
sS'louisiana'
p2458
I1
sS'ranging'
p2459
I1
sS'opens'
p2460
I2
sg2005
I1
sg1282
I1
sS'danish'
p2461
I2
sS'ivory'
p2462
I1
sS'emeralds'
p2463
I1
sS'saint'
p2464
I1
sg330
I1
sS'moscow'
p2465
I1
sS'heir'
p2466
I1
sg167
I2
sS'sophisticated'
p2467
I1
sS'opalescent'
p2468
I1
sg1286
I2
sS'stems'
p2469
I1
sg242
I1
sg219
I1
sg1115
I1
sS'herself'
p2470
I1
sg929
I1
sS'plants'
p2471
I1
sg2340
I1
sg381
I1
sS'grew'
p2472
I1
sg1791
I2
sg1318
I1
sg847
I2
sg1627
I1
sS'lilies-of-'
p2473
I1
sS'crystal'
p2474
I1
sg1792
I1
sg271
I1
sS'ongoing'
p2475
I1
sS'ten-panel'
p2476
I1
sg495
I1
sg1386
I1
sS'following'
p2477
I1
sg298
I1
sS'napoleon'
p2478
I1
sg2043
I1
sS'matilda'
p2479
I4
sS'sapphires'
p2480
I1
sS'nephrite'
p2481
I1
sg1069
I1
sS'mountains'
p2482
I1
sg1656
I1
sS'jewels'
p2483
I1
sg180
I3
sg865
I2
sS'abastuman'
p2484
I1
sg1065
I1
sS'sought'
p2485
I1
sS'colonel'
p2486
I1
sg83
I2
sg1670
I1
sg1395
I1
sS'oval'
p2487
I1
sg768
I1
sS'pink'
p2488
I1
sg396
I1
sg104
I2
sg105
I1
sg616
I1
sg1888
I1
sS"empress's"
p2489
I1
sS'divided'
p2490
I1
sS'hermitage'
p2491
I1
sS'able'
p2492
I1
sS'green'
p2493
I1
sg1394
I1
sg430
I1
sg107
I1
sS'feodorovna'
p2494
I3
sS'polishers'
p2495
I1
sS'take'
p2496
I1
sg787
I1
sg256
I2
sS'objets'
p2497
I1
sg1141
I1
sg2000
I1
sS'armies'
p2498
I1
sS'plant'
p2499
I1
sS'edged'
p2500
I1
sS'replicas'
p2501
I1
sS'eggs'
p2502
I4
sS'earlier'
p2503
I1
sg166
I1
sg1610
I1
sg258
I2
sg169
I2
sg218
I1
sS'floral'
p2504
I1
sg1592
I1
sg1671
I1
sg114
I2
sS'maria'
p2505
I2
sS'blossoms'
p2506
I1
sg2055
I1
sS'enamel'
p2507
I1
sS'sets'
p2508
I1
sS'considered'
p2509
I1
sg1469
I1
sS'u'
p2510
I1
sS'enterprise'
p2511
I2
sS'basket'
p2512
I4
sS'six-panel'
p2513
I1
sg706
I1
sS'egg'
p2514
I6
sg410
I1
ssS'00326'
p2515
(dp2516
S'seminal'
p2517
I1
sS'limited'
p2518
I1
sS'executed'
p2519
I2
sg317
I1
sg1696
I1
sS'wall'
p2520
I3
sg1737
I1
sg1552
I1
sg129
I1
sS'sol'
p2521
I1
sS'slated'
p2522
I1
sS'maximum'
p2523
I1
sg2000
I1
sS'flexibility'
p2524
I1
sS'lewitt'
p2525
I2
sS"work's"
p2526
I1
sg193
I1
sS'directly'
p2527
I1
sS'duration'
p2528
I1
sS'existence'
p2529
I1
sg1167
I1
sg8
I1
sg813
I1
sS'triangle'
p2530
I1
sg2405
I1
sg76
I1
sS'cross'
p2531
I1
sg1453
I1
sS'painted'
p2532
I1
sS'state'
p2533
I2
sg1573
I1
sS'bands'
p2534
I1
sg2250
I1
sS'geometric'
p2535
I1
sS'extricated'
p2536
I1
sg418
I1
sg1926
I1
sg372
I1
sS'drafters'
p2537
I1
sg790
I1
sS'generates'
p2538
I1
sg1619
I1
sg2418
I1
sS'becomes'
p2539
I1
sS'detail'
p2540
I1
sg1179
I1
sg546
I1
sg258
I1
sS'finished'
p2541
I1
sS'designed'
p2542
I1
sg625
I1
sS'three-inch'
p2543
I1
sS'directions'
p2544
I1
sS'emphasized'
p2545
I1
sS'confines'
p2546
I1
sg747
I1
sg1112
I1
sg841
I1
sg768
I1
sg324
I1
sg85
I1
sS'january'
p2547
I1
sS'diamond'
p2548
I1
sg383
I1
sS'transferred'
p2549
I1
sg222
I1
sS"lewitt's"
p2550
I1
sg61
I1
sg33
I1
sg2077
I1
sS'parallel'
p2551
I1
sg410
I2
sS'wrote'
p2552
I1
sg2238
I1
ssS'00327'
p2553
(dp2554
g641
I1
sS'hevajra'
p2555
I1
sS'stupa'
p2556
I1
sg146
I1
sg824
I1
sg480
I1
sg97
I1
sg282
I1
sg1849
I1
sS'steve'
p2557
I1
sS'thirteenth-century'
p2558
I1
sg903
I1
sg1583
I1
sS'nepalese'
p2559
I2
sS'padmapani'
p2560
I1
sS'mandala'
p2561
I1
sg1837
I1
sS'vajravarahi'
p2562
I1
sS'sharon'
p2563
I1
sS'kinney'
p2564
I1
sS'tangka'
p2565
I1
sg1892
I1
sg921
I1
sg1148
I1
sg1818
I1
sg1259
I1
sS'integrated'
p2566
I1
sg1558
I2
sg2131
I1
sS'zimmerman'
p2567
I1
sg1842
I1
sg891
I1
sg169
I2
sS'brass'
p2568
I1
sg176
I1
sS'tibetan'
p2569
I3
sg1300
I1
sg55
I2
sg1351
I1
sS'goddess'
p2570
I1
sS'polychromed'
p2571
I1
sg58
I1
sg85
I1
sS'gifted'
p2572
I1
sS'herbert'
p2573
I1
sg725
I1
sg991
I1
sS'davies'
p2574
I1
sS'gilbert'
p2575
I1
sg92
I1
sg2286
I1
ssS'00320'
p2576
(dp2577
g1744
I1
sg871
I5
sg1146
I1
sS'playful'
p2578
I1
sS'symbolism'
p2579
I1
sg876
I3
sg2359
I1
sg568
I1
sS'pleased'
p2580
I1
sS'han'
p2581
I1
sS'character'
p2582
I1
sg231
I2
sg1372
I1
sS'mischievous'
p2583
I1
sg884
I3
sS'weber'
p2584
I1
sS'conveying'
p2585
I1
sg18
I1
sS'fan'
p2586
I1
sg22
I1
sg2293
I1
sS'word'
p2587
I2
sS'depicts'
p2588
I1
sS'monkeys'
p2589
I3
sS'february'
p2590
I1
sg2011
I1
sS"egret's"
p2591
I1
sg1130
I2
sg33
I2
sg593
I1
sg1193
I1
sS'repeating'
p2592
I1
sg958
I1
sg2442
I2
sg2035
I1
sg317
I1
sg37
I2
sS'intelligence'
p2593
I1
sS'jade'
p2594
I1
sg1063
I1
sS'traits'
p2595
I1
sg422
I5
sg209
I1
sS'calendar'
p2596
I3
sS'gibbon'
p2597
I2
sg1792
I1
sS'expressed'
p2598
I1
sg8
I1
sg281
I1
sS'lunar'
p2599
I4
sS'eventually'
p2600
I1
sg153
I1
sS'appeal'
p2601
I1
sS'pun'
p2602
I2
sg1138
I1
sS'exam'
p2603
I1
sS"china's"
p2604
I1
sg890
I1
sS'believed'
p2605
I1
sg1145
I1
sS'gibbons'
p2606
I1
sS'monkey'
p2607
I5
sg843
I1
sg1181
I1
sg968
I1
sS'ox'
p2608
I1
sS'rebus'
p2609
I1
sg2174
I1
sg1960
I1
sg1171
I1
sg1117
I1
sg132
I1
sS'lively'
p2610
I1
sS'carving'
p2611
I1
sg1167
I1
sS'seventeenth'
p2612
I1
sS'raiding'
p2613
I1
sS'horse'
p2614
I1
sg1702
I1
sg147
I1
sS'similarly'
p2615
I1
sS'distinct'
p2616
I1
sS'sequence'
p2617
I1
sg76
I1
sg2167
I1
sS'featuring'
p2618
I1
sg967
I1
sS'globe'
p2619
I1
sS'ram'
p2620
I1
sS'corresponding'
p2621
I1
sg1414
I1
sS'dates'
p2622
I1
sS'tiger'
p2623
I1
sg519
I2
sS'rabbit'
p2624
I1
sS'earliest-known'
p2625
I1
sS'rooster'
p2626
I1
sg378
I1
sg896
I1
sg897
I1
sS'begins'
p2627
I1
sg1726
I1
sg1164
I3
sg483
I2
sg85
I1
sS'wish'
p2628
I1
sS'accomplishment'
p2629
I1
sS'record'
p2630
I1
sS'depictions'
p2631
I1
sg1129
I1
sS'behavior'
p2632
I1
sS'embody'
p2633
I1
sS'zodiac'
p2634
I2
sg1412
I2
sS'charlotte'
p2635
I1
sS'associated'
p2636
I1
sg1069
I1
sg249
I3
sS'certain'
p2637
I1
sS'universal'
p2638
I1
sg282
I1
sS'pig'
p2639
I1
sS'depiction'
p2640
I1
sS'rat'
p2641
I1
sg261
I1
sg536
I1
sS'acts'
p2642
I1
sS'animal'
p2643
I1
sS'intelligent'
p2644
I1
sS'twelfth'
p2645
I1
sS'conveys'
p2646
I1
sS'energetic'
p2647
I1
sg389
I1
sg475
I1
sS'nest'
p2648
I1
sS'twelve-year'
p2649
I1
sg1858
I1
sS'cycle'
p2650
I1
sS'homophone'
p2651
I2
sS'dog'
p2652
I1
sS'dragon'
p2653
I1
sS'thought'
p2654
I1
sS'academic'
p2655
I1
sg121
I2
sg1813
I1
ssS'00321'
p2656
(dp2657
g135
I2
sS'quilt'
p2658
I1
sg2229
I1
sg128
I1
sg270
I1
sg132
I1
sS'additions'
p2659
I1
sg609
I1
sS'folk'
p2660
I1
sg1242
I1
sg44
I1
sg459
I1
sg146
I1
sg214
I1
sg76
I1
sg617
I1
sg107
I1
sg1316
I1
sg153
I1
sg700
I1
sS'quilts'
p2661
I3
sS'august'
p2662
I1
sg403
I1
sS"wing's"
p2663
I1
sg1144
I1
sg169
I1
sS'eight'
p2664
I1
sS'rotation'
p2665
I1
sg418
I1
sg1249
I1
sS'hicks'
p2666
I1
sg2547
I1
sg478
I1
sS'remain'
p2667
I1
sg265
I1
sg867
I1
sg121
I1
sS'solomon'
p2668
I1
ssS'00322'
p2669
(dp2670
g1794
I1
sS'mexican'
p2671
I1
sg1069
I1
sS'mexico'
p2672
I2
sg132
I1
sg2659
I1
sg615
I1
sg8
I1
sS'emily'
p2673
I1
sg1623
I1
sg574
I1
sg113
I1
sS'founder'
p2674
I1
sS'ambitions'
p2675
I1
sg233
I1
sg428
I1
sg1768
I1
sg249
I1
sS'forests'
p2676
I2
sS'highlighted'
p2677
I1
sS'forest'
p2678
I2
sg2316
I1
sS'frustrated'
p2679
I1
sg1281
I1
sg257
I1
sg1406
I1
sg1557
I1
sg1523
I1
sS'anchors'
p2680
I1
sS'though'
p2681
I1
sg1140
I1
sS'commits'
p2682
I1
sg833
I4
sS'maiolica'
p2683
I1
sg1144
I1
sS'exhibiting'
p2684
I1
sg1342
I1
sg54
I1
sS'president'
p2685
I1
sS'resonates'
p2686
I1
sS'achievement'
p2687
I1
sg700
I1
sS'pottery'
p2688
I2
sS'foundational'
p2689
I1
sS'daughter'
p2690
I1
sg1331
I1
sS'gift'
p2691
I1
sS'envisioned'
p2692
I1
sg779
I1
sS'calling'
p2693
I1
sg265
I2
sg851
I1
sg867
I2
sS'johnston'
p2694
I1
sS'gave'
p2695
I1
sg2120
I1
sS'husband'
p2696
I1
ssS'00323'
p2697
(dp2698
g2520
I2
sS'testing'
p2699
I1
sg2640
I1
sS'understood'
p2700
I1
sS'exodus'
p2701
I1
sS'analysis'
p2702
I1
sg1762
I1
sS'hanging'
p2703
I2
sg2142
I2
sg1123
I1
sg1392
I1
sS'use'
p2704
I3
sg651
I1
sg124
I1
sg76
I1
sg1416
I1
sg1051
I1
sS'pile'
p2705
I1
sg153
I1
sS'red'
p2706
I1
sg1319
I1
sS'elements'
p2707
I1
sg1558
I2
sS'scientific'
p2708
I1
sg1718
I1
sS'liturgical'
p2709
I1
sS'possibly'
p2710
I1
sg1144
I1
sg1592
I1
sS'mosaic'
p2711
I1
sg1742
I1
sg783
I1
sS'iconographic'
p2712
I1
sS'crossing'
p2713
I1
sS'loop'
p2714
I1
ssS'00328'
p2715
(dp2716
g1794
I1
sg327
I1
sg2260
I1
sS'courtesans'
p2717
I1
sg1291
I1
sg2457
I1
sg2258
I1
sS'zen'
p2718
I1
sg602
I2
sg1326
I1
sg191
I1
sS'colors'
p2719
I1
sg338
I1
sg1256
I1
sg1800
I1
sS'ceremony'
p2720
I1
sg2339
I1
sS'conjured'
p2721
I1
sS'literati'
p2722
I1
sg1828
I1
sg1853
I1
sg2275
I1
sS'spirituality'
p2723
I1
sS'shinto'
p2724
I1
sS'tribute'
p2725
I1
sS'genji'
p2726
I1
sg1191
I1
sS'boldness'
p2727
I1
sS'portraiture'
p2728
I1
sS'charming'
p2729
I1
sS'lens'
p2730
I1
sS'imaginary'
p2731
I1
sg140
I1
sS'aestheticized'
p2732
I1
sg1352
I1
sS'bird-and-flower'
p2733
I1
sS'accoutrements'
p2734
I1
sg528
I1
sS'tale'
p2735
I1
sg121
I2
sS'sublime'
p2736
I1
ssS'00329'
p2737
(dp2738
S'insight'
p2739
I1
sg565
I2
sg272
I1
sg959
I1
sg8
I2
sS'unfinished'
p2740
I2
sg107
I1
sg896
I2
sg280
I1
sS'partake'
p2741
I1
sS'resources'
p2742
I1
sS'non'
p2743
I1
sg1906
I1
sS'broadest'
p2744
I1
sg19
I1
sg1612
I1
sg817
I1
sg471
I1
sS'term'
p2745
I1
sS'titian'
p2746
I1
sS'alternately'
p2747
I1
sS'entirely'
p2748
I1
sg317
I1
sg481
I1
sg1046
I1
sg330
I1
sS'blurred'
p2749
I1
sS'enhanced'
p2750
I1
sS'makers'
p2751
I1
sg736
I1
sg213
I1
sg819
I1
sg1554
I1
sg1768
I1
sg2340
I1
sS'lygia'
p2752
I1
sS'boundaries'
p2753
I1
sg1880
I1
sg153
I1
sg1134
I1
sg1342
I1
sg1144
I1
sg497
I1
sS"history's"
p2754
I1
sg2544
I1
sg641
I1
sg966
I1
sg843
I1
sS'unresolved'
p2755
I1
sg1399
I1
sg2093
I1
sS'embraces'
p2756
I1
sg756
I1
sg1778
I1
sS'clark'
p2757
I1
sg129
I1
sS'janine'
p2758
I1
sS'rauschenberg'
p2759
I1
sg1349
I1
sg822
I1
sg239
I1
sg1784
I1
sS'recruited'
p2760
I1
sg768
I1
sS'mine'
p2761
I1
sg2541
I1
sS'masters'
p2762
I1
sg929
I1
sS'antoni'
p2763
I1
sg1036
I1
sg1386
I1
sg90
I1
sg1388
I1
sg1476
I1
sS'begun'
p2764
I1
sS'give'
p2765
I1
sg250
I1
sg79
I2
sg16
I2
sS'deep'
p2766
I1
sg390
I1
sS'turner'
p2767
I1
sS'percent'
p2768
I1
sS'scholarly'
p2769
I2
sS'finito'
p2770
I1
sg257
I1
sg1499
I1
sS'open-ended'
p2771
I1
sS'renaissance'
p2772
I2
sS'explored'
p2773
I1
sS'capacity'
p2774
I1
sS'un-making'
p2775
I1
sg264
I1
sg867
I1
sg469
I1
sS'incomplete'
p2776
I1
sg2238
I1
ssS'00207'
p2777
(dp2778
S'deco'
p2779
I1
sS'two-dimensional'
p2780
I1
sg563
I1
sS'cynthia'
p2781
I1
sS'exaggerating'
p2782
I1
sg565
I1
sg1199
I1
sg2000
I1
sg193
I1
sS'cuts'
p2783
I1
sg2359
I1
sg570
I1
sS'warren'
p2784
I1
sS'wraps'
p2785
I1
sg572
I1
sS'homage'
p2786
I1
sS'researches'
p2787
I1
sg1329
I1
sg461
I1
sS'window'
p2788
I3
sS'combine'
p2789
I1
sg1244
I1
sS'nenad'
p2790
I1
sS'hat'
p2791
I1
sS'carole'
p2792
I1
sS'figuration'
p2793
I1
sS'woman'
p2794
I1
sS'fourth'
p2795
I1
sg1179
I1
sS'bowler'
p2796
I1
sS'community'
p2797
I1
sS'schematizing'
p2798
I1
sS'dr'
p2799
I1
sS'merchandise'
p2800
I1
sg1249
I1
sg860
I1
sg1548
I1
sg56
I1
sg851
I2
sg33
I1
sS'hand-constructing'
p2801
I1
sg125
I1
sg317
I1
sS'folds'
p2802
I1
sS'diane'
p2803
I1
sS'process-driven'
p2804
I1
sg271
I1
sS'recognition'
p2805
I1
sg613
I1
sS'plays'
p2806
I1
sS'evokes'
p2807
I1
sS'richard'
p2808
I1
sS'chicago'
p2809
I3
sg1828
I1
sg1943
I1
sS'douglas'
p2810
I1
sg914
I1
sS'longtime'
p2811
I1
sg315
I1
sg2535
I1
sS'hangers'
p2812
I1
sS'racine'
p2813
I1
sS'streamlined'
p2814
I1
sS'pioneering'
p2815
I1
sS'wisconsin'
p2816
I1
sS'glimpse'
p2817
I1
sS'carol'
p2818
I1
sS'raskin'
p2819
I1
sS'gained'
p2820
I1
sS'incorporates'
p2821
I1
sg1884
I4
sg1634
I2
sS'inspired'
p2822
I1
sg181
I1
sS'utilitarian'
p2823
I1
sg222
I1
sS'belic'
p2824
I2
sS'platforms'
p2825
I1
sS'makes'
p2826
I1
sg146
I1
sg972
I1
sS'pays'
p2827
I1
sS'tableaux'
p2828
I1
sS'lynne'
p2829
I1
sS'crafted'
p2830
I1
sS'backdrops'
p2831
I1
sS'rivets'
p2832
I1
sS'stitches'
p2833
I1
sg763
I2
sg514
I2
sg1129
I1
sg1279
I1
sg1250
I1
sg2167
I1
sS'final'
p2834
I2
sS'store'
p2835
I1
sS'field'
p2836
I1
sg80
I1
sg330
I1
sg2541
I1
sS'dressers'
p2837
I1
sg667
I1
sS'street-level'
p2838
I1
sg291
I2
sg578
I1
sg732
I1
sg85
I3
sg815
I1
sS'renders'
p2839
I1
sS'carefully'
p2840
I1
sS'seamlessly'
p2841
I1
sg92
I2
sS'eras'
p2842
I1
sS'originating'
p2843
I1
sg249
I1
sg250
I1
sS'cohen'
p2844
I1
sS'occupies'
p2845
I1
sg595
I1
sS'accessories'
p2846
I1
sS'curves'
p2847
I1
sS'manner'
p2848
I1
sS'david'
p2849
I1
sS'clothing'
p2850
I2
sg426
I1
sg427
I1
sS'make'
p2851
I1
sg430
I2
sS'member'
p2852
I1
sg107
I2
sS'pinafore'
p2853
I1
sS'ellen'
p2854
I1
sg1052
I1
sg541
I1
sS'realizes'
p2855
I1
sg333
I1
sg691
I1
sS'premiere'
p2856
I1
sS'manuals'
p2857
I1
sS'nationally'
p2858
I1
sS'dimensions'
p2859
I1
sS'fuse'
p2860
I1
sg2542
I1
sS'ties'
p2861
I1
sS'journals'
p2862
I1
sg1300
I2
sS'stands'
p2863
I1
sg1034
I2
sS'windows'
p2864
I1
sg275
I1
sg117
I1
sg119
I1
sg263
I2
sS'simpson'
p2865
I5
sg853
I1
sg185
I1
ssS'00206'
p2866
(dp2867
g939
I1
sg907
I1
sS'mores'
p2868
I1
sS'surrealist'
p2869
I2
sS'balthus'
p2870
I1
sg564
I1
sS'results'
p2871
I1
sS'surrealism'
p2872
I5
sg272
I3
sg193
I1
sg1085
I1
sS'mutu'
p2873
I1
sS'francesca'
p2874
I1
sS'paul'
p2875
I1
sS'forrest'
p2876
I1
sg8
I1
sS'issues'
p2877
I1
sS'inspire'
p2878
I1
sg132
I1
sg2721
I3
sg1606
I1
sg428
I1
sS'jim'
p2879
I1
sg461
I1
sg1892
I1
sg929
I1
sS'founders'
p2880
I2
sS'encompassed'
p2881
I1
sg1924
I1
sg1027
I1
sS'lure'
p2882
I1
sS'chicago-based'
p2883
I2
sS'straightforward'
p2884
I1
sg718
I1
sS'plaster'
p2885
I1
sS'earle'
p2886
I1
sg2289
I1
sg565
I2
sg723
I1
sg2070
I1
sg176
I1
sS'continued'
p2887
I1
sg1691
I1
sg178
I3
sg2444
I1
sg1466
I1
sS'ludgin'
p2888
I1
sg860
I1
sg1250
I1
sS'traced'
p2889
I1
sg56
I1
sS'wangechi'
p2890
I1
sS'low-relief'
p2891
I1
sS'leonora'
p2892
I1
sg2784
I1
sg1935
I1
sS'round'
p2893
I1
sS'generations'
p2894
I1
sS'grouping'
p2895
I1
sS'framed'
p2896
I1
sS'shapiro'
p2897
I1
sS'curated'
p2898
I1
sg317
I2
sg908
I1
sg279
I2
sS'shamanistic'
p2899
I1
sg400
I1
sg459
I2
sg444
I1
sg1514
I1
sS'bess'
p2900
I1
sS'golub'
p2901
I1
sg211
I1
sS'dorothea'
p2902
I1
sS'jimmie'
p2903
I1
sg336
I1
sg214
I1
sg2809
I3
sg1626
I1
sS'bergman'
p2904
I3
sS'cast'
p2905
I1
sg738
I1
sg281
I1
sS'tendency'
p2906
I1
sS'max'
p2907
I1
sg469
I2
sS'abercrombie'
p2908
I1
sS'bontecou'
p2909
I1
sS'movement'
p2910
I3
sg887
I1
sg1807
I1
sS'monster'
p2911
I1
sg736
I1
sS'grotjahn'
p2912
I1
sS'continuing'
p2913
I2
sS'jeff'
p2914
I1
sg965
I1
sg286
I1
sS'twentieth'
p2915
I1
sg1703
I1
sS'demonstrate'
p2916
I1
sg2362
I1
sS'observing'
p2917
I1
sg55
I1
sS'cindy'
p2918
I1
sg843
I1
sg2150
I1
sg1832
I1
sS'freedom'
p2919
I1
sS'deer'
p2920
I1
sg2252
I1
sg2030
I1
sg265
I1
sg2154
I1
sS'koons'
p2921
I1
sS'breton'
p2922
I1
sg182
I1
sS'skin'
p2923
I1
sS'ernst'
p2924
I1
sS'expression'
p2925
I2
sS'jory'
p2926
I1
sg641
I2
sg310
I1
sS'besides'
p2927
I1
sg146
I1
sS'afforded'
p2928
I1
sS'hometown'
p2929
I1
sg54
I1
sg228
I1
sS'leon'
p2930
I1
sg1962
I1
sS'psychological'
p2931
I1
sS'durham'
p2932
I1
sg974
I1
sS'stylistically'
p2933
I1
sS'matta'
p2934
I1
sg734
I1
sS'ramberg'
p2935
I1
sS'gertrude'
p2936
I1
sg574
I1
sg2260
I1
sS'carrington'
p2937
I1
sS'westermann'
p2938
I1
sg76
I1
sS'mark'
p2939
I1
sg820
I1
sg920
I1
sg77
I1
sS'raft'
p2940
I1
sg316
I1
sg78
I1
sS'andr'
p2941
I1
sg639
I1
sg372
I4
sg80
I1
sS'delvaux'
p2942
I1
sS'forming'
p2943
I1
sS'mca'
p2944
I1
sS'scrutiny'
p2945
I1
sg519
I3
sS'declaration'
p2946
I1
sg379
I1
sS'groupings'
p2947
I1
sg291
I1
sS'magritte'
p2948
I2
sg85
I2
sS'noting'
p2949
I1
sg1378
I1
sS'strategies'
p2950
I1
sg775
I1
sS'values'
p2951
I1
sg1036
I1
sS'emotional'
p2952
I1
sS'presenting'
p2953
I1
sg1794
I1
sS'proved'
p2954
I1
sg249
I1
sS'thus'
p2955
I1
sg2766
I1
sS'piquing'
p2956
I1
sg98
I1
sS'tanning'
p2957
I1
sS'further'
p2958
I1
sg998
I1
sS'full-size'
p2959
I1
sS'currents'
p2960
I1
sS'lindy'
p2961
I2
sS'strength'
p2962
I1
sg896
I2
sg275
I1
sS'edwin'
p2963
I2
sS'nutt'
p2964
I1
sg2275
I1
sS'rubber'
p2965
I1
sg107
I1
sS'strange'
p2966
I1
sg785
I1
sg153
I1
sg1667
I1
sg886
I1
sS'woodman'
p2967
I1
sg1191
I1
sS'irrational'
p2968
I1
sS'populate'
p2969
I1
sS'roster'
p2970
I1
sS'eccentric'
p2971
I1
sS'sherman'
p2972
I1
sS'hairy'
p2973
I1
sg2829
I1
sg258
I1
sg2172
I1
sg1405
I1
sg1300
I1
sS'lee'
p2974
I1
sg1221
I1
sg844
I1
sg523
I1
sg1034
I1
sg1107
I1
sg1012
I1
sg1860
I1
sS'magical'
p2975
I1
sS'surrealist-related'
p2976
I2
sg261
I1
sg253
I1
sg263
I1
sS'surrealists'
p2977
I2
sS'inspirational'
p2978
I1
sS'representation'
p2979
I1
sg1001
I1
sg1016
I1
ssS'00205'
p2980
(dp2981
S'handforth'
p2982
I1
sg2878
I1
sS'scratch'
p2983
I1
sS'hats'
p2984
I1
sS'efroymson'
p2985
I1
sg565
I1
sg1199
I1
sS'filters'
p2986
I1
sg8
I2
sS'fifth'
p2987
I1
sg2939
I1
sS'undulating'
p2988
I1
sg574
I1
sS'straw'
p2989
I1
sS'alchemy'
p2990
I1
sg1607
I1
sg1923
I1
sS'precast'
p2991
I1
sg1319
I1
sS'shadows'
p2992
I1
sS'quasi-kaleidoscopic'
p2993
I1
sS'activation'
p2994
I1
sS'mop'
p2995
I1
sS'red-white-and-blue'
p2996
I1
sS'da'
p2997
I5
sS'underneath'
p2998
I1
sS'coursing'
p2999
I1
sS'striped'
p3000
I1
sg471
I1
sg1869
I1
sS'wondrously'
p3001
I1
sS'sizes'
p3002
I1
sg1329
I1
sg860
I1
sg29
I1
sg56
I1
sS'shapes'
p3003
I1
sS'chamber'
p3004
I1
sS'full-scale'
p3005
I1
sS'martin'
p3006
I1
sg1193
I1
sS'amanda'
p3007
I1
sS'alexandre'
p3008
I1
sS'available'
p3009
I1
sg125
I1
sg480
I2
sS'creed'
p3010
I1
sg1047
I1
sg613
I1
sg2809
I2
sg297
I1
sS'ross-ho'
p3011
I1
sS'pipes'
p3012
I1
sg1453
I1
sS'liberated'
p3013
I1
sS'plinth'
p3014
I1
sS'darling'
p3015
I1
sg345
I1
sS'alsdorf'
p3016
I1
sS'midcentury'
p3017
I1
sS'double-takes'
p3018
I1
sg497
I2
sg625
I1
sg1978
I1
sS'peer'
p3019
I1
sS'repurpose'
p3020
I1
sg2898
I1
sg1634
I1
sS'plaza'
p3021
I4
sS'mixer'
p3022
I1
sS'w'
p3023
I1
sS'soda'
p3024
I1
sS'passing'
p3025
I1
sS'finds'
p3026
I1
sS'sewer'
p3027
I1
sS'mimicked'
p3028
I1
sg146
I1
sg2520
I1
sS'mbe'
p3029
I1
sS'down'
p3030
I1
sg508
I1
sS'homebodies'
p3031
I1
sS'vessel'
p3032
I1
sg369
I1
sg1365
I1
sS'umbrellas'
p3033
I1
sg461
I1
sg2704
I1
sS'heads'
p3034
I1
sS'fabric'
p3035
I1
sg2165
I1
sg73
I1
sS'sunlight'
p3036
I1
sg1173
I1
sS'cunha'
p3037
I6
sS'brazilian'
p3038
I1
sg77
I1
sS'already-existing'
p3039
I1
sg371
I1
sg80
I1
sg2944
I3
sS'delivery'
p3040
I1
sg520
I1
sS'particular'
p3041
I1
sS'hole'
p3042
I1
sg929
I1
sg83
I1
sg528
I1
sg815
I2
sS'previously'
p3043
I1
sg2475
I1
sg90
I1
sg92
I1
sg639
I1
sS'overlooked'
p3044
I1
sg79
I1
sg1480
I1
sS'arrangements'
p3045
I1
sg811
I1
sS'fashioned'
p3046
I1
sS'cleaned'
p3047
I1
sS'yinka'
p3048
I1
sS'if'
p3049
I1
sS'functions'
p3050
I1
sS'bottles'
p3051
I1
sg2851
I1
sg120
I1
sg107
I3
sg2966
I1
sS'shonibare'
p3052
I1
sg152
I1
sg435
I1
sS'beauty'
p3053
I2
sS'inherent'
p3054
I1
sg2416
I1
sg396
I1
sS'cement'
p3055
I1
sg1301
I1
sg547
I1
sg947
I1
sg105
I1
sg1592
I1
sS'hamid'
p3056
I1
sS'concrete'
p3057
I1
sg253
I1
sg263
I1
sS'truck'
p3058
I1
sg257
I1
sS'awning'
p3059
I1
sS'barrel'
p3060
I1
sS'typical'
p3061
I1
ssS'00204'
p3062
(dp3063
S'office'
p3064
I1
sS'lack'
p3065
I1
sg565
I1
sg2904
I2
sg1602
I1
sg1515
I1
sS'candidates'
p3066
I1
sg280
I1
sS'julie'
p3067
I1
sg16
I1
sS'readymades'
p3068
I1
sS'metaphorical'
p3069
I1
sg444
I1
sg1752
I1
sS'widholm'
p3070
I1
sg168
I1
sg578
I1
sS'fall'
p3071
I1
sS'presidential'
p3072
I1
sg953
I1
sg860
I1
sS'gender'
p3073
I1
sg56
I1
sg725
I1
sS'flux'
p3074
I1
sS'race'
p3075
I1
sg851
I1
sg1548
I1
sS'minimalism'
p3076
I1
sS'fixed'
p3077
I1
sS'studios'
p3078
I1
sg317
I1
sS'doing'
p3079
I1
sS'situates'
p3080
I1
sS'resist'
p3081
I1
sS'mirror'
p3082
I1
sg962
I1
sS'contingent'
p3083
I1
sS'cues'
p3084
I1
sg1343
I2
sg2809
I1
sg1554
I1
sS'humorous'
p3085
I1
sg2302
I1
sg1792
I1
sg738
I1
sg1880
I1
sS'allegory'
p3086
I1
sg2250
I1
sg153
I2
sg345
I1
sg493
I1
sg348
I1
sS'linear'
p3087
I1
sS'installations'
p3088
I1
sg495
I1
sS'campaigns'
p3089
I1
sg1632
I1
sS'andrews'
p3090
I4
sS'consequences'
p3091
I1
sS'anything'
p3092
I1
sg181
I1
sg2030
I1
sg1358
I1
sg1009
I1
sg971
I1
sg2257
I1
sg146
I1
sg367
I1
sg1836
I1
sg132
I1
sS'packaging'
p3093
I1
sS'corporations'
p3094
I1
sg1300
I1
sg599
I1
sS'meanings'
p3095
I1
sS'hollywood'
p3096
I1
sg519
I1
sS'reinscribes'
p3097
I1
sg667
I1
sS'kathryn'
p3098
I1
sg83
I1
sS'calls'
p3099
I1
sS'presidency'
p3100
I1
sS'double'
p3101
I1
sS'elections'
p3102
I1
sg865
I1
sg2951
I1
sS'rodrigues'
p3103
I1
sS'aesthetics'
p3104
I1
sg1476
I1
sg147
I1
sS'viewer'
p3105
I1
sS'conceptualism'
p3106
I1
sg595
I1
sg2323
I1
sS'sample'
p3107
I1
sS'elicit'
p3108
I1
sg996
I1
sg2961
I1
sg3050
I1
sg104
I1
sg105
I1
sg275
I1
sg2963
I1
sS'sitting'
p3109
I1
sS'politicians'
p3110
I1
sS'forces'
p3111
I1
sg1179
I1
sg1028
I1
sg182
I1
sS'questioning'
p3112
I1
sS'producers'
p3113
I1
sg2685
I2
sg2188
I1
sg1034
I3
sS'performances'
p3114
I1
sS'narrative'
p3115
I1
sg185
I1
ssS'00203'
p3116
(dp3117
S'alluring'
p3118
I1
sS'photo'
p3119
I1
sg564
I1
sg565
I2
sg191
I1
sg2719
I1
sS'books'
p3120
I1
sg538
I1
sS'campbell'
p3121
I1
sg570
I2
sg8
I1
sS'griffin'
p3122
I1
sS'mimicking'
p3123
I1
sS'icons'
p3124
I1
sg1329
I1
sS'relevance'
p3125
I1
sS'automobile-centric'
p3126
I1
sS'local'
p3127
I1
sg1413
I1
sg576
I1
sS'supported'
p3128
I1
sg18
I1
sS'colorful'
p3129
I1
sg585
I1
sS'stripes'
p3130
I1
sS'donahue'
p3131
I1
sg951
I2
sg176
I1
sg2887
I1
sg1929
I1
sg471
I1
sg1930
I1
sS'streetwalker'
p3132
I1
sg860
I2
sS'fully'
p3133
I1
sS'celebrity'
p3134
I1
sg29
I1
sg39
I1
sS'candy'
p3135
I1
sS'pictured'
p3136
I1
sS'characterizes'
p3137
I1
sg272
I1
sS'nude'
p3138
I1
sg327
I1
sS'financial'
p3139
I1
sg730
I1
sS'ed'
p3140
I2
sS'energy'
p3141
I1
sS'direct'
p3142
I1
sg56
I1
sg732
I2
sg950
I2
sg607
I1
sS'connect'
p3143
I1
sS'signage'
p3144
I1
sS'embodied'
p3145
I1
sg2809
I1
sS'section'
p3146
I1
sg487
I1
sS'find'
p3147
I1
sg281
I1
sS'bustling'
p3148
I1
sS'mel'
p3149
I1
sg1612
I1
sg3015
I1
sg1026
I1
sS'independence'
p3150
I1
sg2910
I1
sg3016
I1
sS'complementary'
p3151
I1
sS'oldenburg'
p3152
I1
sg2419
I2
sS'handful'
p3153
I1
sg927
I1
sS'however'
p3154
I1
sS'salesmanship'
p3155
I1
sg1346
I1
sS'ramos'
p3156
I1
sg1349
I1
sg1561
I1
sS'warhol'
p3157
I2
sS'claes'
p3158
I1
sS'elcina'
p3159
I1
sg1507
I1
sg783
I1
sg2616
I1
sS'products'
p3160
I1
sS'advertising'
p3161
I1
sS'incorporated'
p3162
I1
sS'preening'
p3163
I1
sS'vostell'
p3164
I1
sg299
I1
sS'otherwise'
p3165
I1
sS'communication'
p3166
I1
sg1836
I5
sg132
I1
sS'simplified'
p3167
I1
sS'female'
p3168
I1
sg1207
I1
sg763
I1
sg2165
I1
sg233
I2
sg966
I1
sg73
I1
sg1129
I1
sS'strategy'
p3169
I1
sS'andy'
p3170
I2
sg3096
I1
sg2835
I1
sg1785
I1
sg1644
I1
sg2944
I3
sS'sales'
p3171
I1
sS'glamour'
p3172
I2
sg287
I1
sS'paschke'
p3173
I2
sS'commercialism'
p3174
I1
sg85
I4
sg1621
I1
sS'rarity'
p3175
I1
sS'soup'
p3176
I1
sS'allure'
p3177
I1
sg1281
I2
sg2950
I1
sg1977
I1
sS'zebra'
p3178
I1
sg2517
I1
sS'troy'
p3179
I2
sS'heartthrob'
p3180
I1
sg2636
I1
sg282
I1
sg595
I2
sS'papier-mache'
p3181
I1
sS'embrace'
p3182
I1
sS'cans'
p3183
I1
sS'silk-screened'
p3184
I1
sS'burgeoning'
p3185
I1
sS'traditionally'
p3186
I1
sg3057
I1
sg429
I1
sS'shocked'
p3187
I1
sg539
I1
sg705
I1
sg2795
I1
sS'underground'
p3188
I1
sS'wolf'
p3189
I1
sS'garish'
p3190
I1
sS'brash'
p3191
I1
sg3023
I1
sg1420
I1
sS'cadillac'
p3192
I1
sg1668
I1
sS'siren'
p3193
I1
sg275
I1
sS'preciousness'
p3194
I1
sg1034
I1
sS'gravitated'
p3195
I1
sg121
I4
sS'ruscha'
p3196
I1
sS'preoccupations'
p3197
I1
sS'capitalism'
p3198
I1
sS'often-used'
p3199
I1
sg119
I1
sg120
I1
sS'passersby'
p3200
I1
sg2119
I2
sS'organization'
p3201
I1
sg800
I1
sS'attacking'
p3202
I1
sS'technicolor'
p3203
I1
ssS'00202'
p3204
(dp3205
S'phenomenon'
p3206
I1
sg370
I1
sS'charles'
p3207
I1
sg565
I1
sg2719
I1
sg3121
I1
sg570
I2
sg2817
I1
sg197
I1
sS'ebullient'
p3208
I1
sS'rhein'
p3209
I1
sg2795
I1
sg168
I2
sS'graphic'
p3210
I1
sS'know'
p3211
I1
sg951
I3
sg580
I1
sg1249
I2
sS'worlds'
p3212
I1
sS'inside-out'
p3213
I1
sg860
I2
sS'chairs'
p3214
I1
sg1329
I1
sg29
I1
sg56
I1
sg592
I2
sS'prevailing'
p3215
I1
sS'swept'
p3216
I1
sg279
I1
sg950
I1
sg607
I6
sS'perspective'
p3217
I1
sS'well-documented'
p3218
I1
sg1623
I1
sg214
I1
sg1768
I1
sg1699
I1
sg1453
I1
sS'achille'
p3219
I1
sg1215
I1
sg3015
I1
sg495
I1
sg3016
I1
sS'castiglioni'
p3220
I1
sg927
I1
sg2421
I1
sg497
I2
sS'lamps'
p3221
I1
sS'marilyn'
p3222
I1
sg3157
I2
sg57
I1
sS'reinforces'
p3223
I1
sS'pervasiveness'
p3224
I1
sS'overseen'
p3225
I1
sS'discussed'
p3226
I1
sg634
I2
sS'sofas'
p3227
I1
sS'weil'
p3228
I1
sg3160
I1
sg3161
I1
sg3023
I1
sS'buzz'
p3229
I1
sS'think'
p3230
I1
sg1317
I1
sS'vitra'
p3231
I2
sg366
I1
sS'precincts'
p3232
I1
sg1836
I6
sg132
I1
sS'embraced'
p3233
I1
sg1276
I1
sS'vivid'
p3234
I1
sg432
I1
sg3170
I1
sS'ettore'
p3235
I1
sg1046
I1
sS'standardized'
p3236
I1
sg502
I1
sS'am'
p3237
I1
sg2944
I2
sg1031
I1
sg378
I2
sg1686
I1
sg1578
I1
sg85
I1
sg528
I1
sg3176
I1
sg1792
I1
sg777
I1
sS'venturi'
p3238
I1
sg248
I1
sg3122
I1
sS'preeminent'
p3239
I1
sS'classic'
p3240
I1
sg282
I2
sg595
I2
sg996
I1
sg3183
I1
sS'everyday'
p3241
I1
sS'monroe'
p3242
I1
sS'influenced'
p3243
I1
sS'eames'
p3244
I1
sg275
I1
sS'deserve'
p3245
I1
sg538
I1
sg107
I1
sS'sottsass'
p3246
I1
sg787
I1
sS'banality'
p3247
I1
sS'exemplify'
p3248
I1
sg1589
I1
sg637
I1
sS'companion'
p3249
I1
sg893
I1
sS'fabrication'
p3250
I1
sS'manifested'
p3251
I1
sS'peers'
p3252
I2
sS'enamored'
p3253
I1
sg96
I1
sg120
I1
sg2119
I1
sS'nelson'
p3254
I1
sg449
I1
sg800
I1
sS'culturally'
p3255
I1
ssS'00201'
p3256
(dp3257
S'imagining'
p3258
I1
sg3118
I1
sg455
I1
sS'wire'
p3259
I1
sg2674
I1
sg2869
I1
sS'tip'
p3260
I1
sg641
I2
sg140
I1
sg192
I1
sg272
I1
sS'referencing'
p3261
I1
sg2784
I1
sS'birthplace'
p3262
I1
sg176
I1
sg459
I1
sS'maps'
p3263
I1
sS'del'
p3264
I1
sS'writer'
p3265
I1
sg461
I1
sS'shifts'
p3266
I1
sg14
I1
sS'homeland'
p3267
I1
sS'puerto'
p3268
I1
sS'town'
p3269
I2
sS'explorations'
p3270
I1
sg3129
I1
sg833
I1
sS'betsy'
p3271
I1
sg565
I1
sg722
I1
sS'ferrer'
p3272
I8
sS'tierra'
p3273
I1
sg951
I2
sg909
I1
sg2009
I1
sg2220
I1
sS'prime'
p3274
I1
sS'kayak'
p3275
I2
sg586
I1
sg860
I1
sS'cleaners'
p3276
I1
sg56
I1
sS'mccormick'
p3277
I1
sg325
I1
sS'bag'
p3278
I1
sS'isolation'
p3279
I1
sS'tribune'
p3280
I1
sS'bone'
p3281
I1
sS'contextualize'
p3282
I1
sg125
I1
sS'fuego'
p3283
I1
sg908
I1
sS'lam'
p3284
I1
sg480
I2
sg481
I1
sS'whic'
p3285
I1
sg912
I1
sg1460
I1
sg2805
I1
sS'really'
p3286
I1
sS'wanderlust'
p3287
I1
sg613
I1
sg214
I1
sS'unsettling'
p3288
I1
sg2405
I1
sS'away'
p3289
I1
sg616
I1
sg2829
I1
sg2811
I1
sg469
I1
sg2910
I1
sg493
I1
sS'creating'
p3290
I1
sg3088
I2
sg337
I1
sg944
I1
sg2421
I1
sS'feelings'
p3291
I1
sg1631
I1
sg866
I1
sS'orientation'
p3292
I1
sg1132
I1
sS'colored'
p3293
I1
sg356
I1
sS'island'
p3294
I3
sg2422
I1
sg533
I1
sg222
I1
sg169
I1
sg363
I1
sS'faces'
p3295
I1
sS'islands'
p3296
I1
sS'rafael'
p3297
I2
sg1958
I1
sS'corrugated'
p3298
I1
sS'vibrantly'
p3299
I1
sS'cien'
p3300
I2
sg972
I1
sS'named'
p3301
I1
sS'solitude'
p3302
I1
sS'powerful'
p3303
I1
sS'garc'
p3304
I1
sg132
I1
sS'well-known'
p3305
I1
sg2035
I1
sS'fire'
p3306
I1
sS'colombia'
p3307
I1
sS'rican'
p3308
I1
sS'nobel'
p3309
I1
sg1207
I1
sS'instigators'
p3310
I1
sg231
I2
sg1344
I1
sS'dna'
p3311
I1
sg3035
I1
sg915
I1
sS'millard'
p3312
I1
sS'due'
p3313
I1
sS'long'
p3314
I1
sS'quickly'
p3315
I1
sS'earl'
p3316
I1
sg2618
I3
sg2316
I1
sS'reflects'
p3317
I1
sg2941
I1
sg2532
I2
sS'norte'
p3318
I1
sg2944
I5
sS'soledad'
p3319
I1
sS'flag'
p3320
I1
sg470
I2
sg143
I1
sS'steel'
p3321
I1
sS'willfully'
p3322
I1
sg669
I1
sS'savagery'
p3323
I1
sS'gabriel'
p3324
I1
sS'believes'
p3325
I1
sg2631
I1
sg2475
I2
sg1432
I1
sg92
I1
sg778
I1
sS'imaginative'
p3326
I1
sS'violence'
p3327
I1
sS'constant'
p3328
I1
sS'wifredo'
p3329
I1
sg147
I1
sg250
I2
sg275
I1
sg595
I1
sg3142
I1
sS'straits'
p3330
I1
sg3046
I1
sS'pennant'
p3331
I1
sS'concentration'
p3332
I1
sS'evocative'
p3333
I1
sg2922
I1
sS'native'
p3334
I1
sS'magellan'
p3335
I2
sg1728
I1
sg106
I1
sS'na'
p3336
I1
sg1001
I1
sg1309
I1
sg538
I1
sg107
I1
sg61
I1
sg154
I1
sS'alternates'
p3337
I1
sg1005
I1
sS'handcrafted'
p3338
I1
sS'voyages'
p3339
I1
sS'explorer'
p3340
I1
sg2416
I1
sg1098
I1
sS'shores'
p3341
I1
sS'immediacy'
p3342
I1
sS'affixed'
p3343
I1
sS'louis'
p3344
I1
sg112
I2
sg113
I1
sS'friends'
p3345
I1
sg1300
I1
sg2650
I1
sS'off'
p3346
I1
sg523
I1
sg2809
I1
sg1407
I1
sS'fictional'
p3347
I1
sg118
I1
sS'pipe'
p3348
I1
sg263
I2
sS'flags'
p3349
I1
sS'macondo'
p3350
I2
sg3115
I1
sS'acknowledges'
p3351
I1
sS'rawhide'
p3352
I1
ssS'00209'
p3353
(dp3354
g1742
I1
sS'meetings'
p3355
I1
sS'inaugural'
p3356
I1
sg874
I1
sS'alludes'
p3357
I1
sg457
I2
sS'rooms'
p3358
I1
sg2783
I1
sg2875
I1
sg165
I1
sg2331
I1
sS'grid'
p3359
I2
sS'masterplan'
p3360
I1
sg723
I1
sS'redesign'
p3361
I2
sg132
I2
sS'cladding'
p3362
I1
sg860
I1
sg592
I2
sg2423
I1
sg2592
I1
sg1454
I1
sS'consistent'
p3363
I1
sg330
I1
sS'rigorous'
p3364
I1
sg2958
I1
sg2974
I1
sg613
I1
sg2809
I1
sS'gridded'
p3365
I1
sS'fenestration'
p3366
I1
sg617
I1
sS'above'
p3367
I1
sg343
I1
sg1260
I1
sg3290
I1
sg350
I1
sg2026
I1
sg1144
I1
sS'refers'
p3368
I1
sg58
I2
sS'restaurant'
p3369
I2
sS'comed'
p3370
I1
sS'angeles'
p3371
I1
sS'plane'
p3372
I2
sS'biennial'
p3373
I2
sS'logic'
p3374
I1
sg2694
I6
sg2542
I2
sS'marklee'
p3375
I5
sS'height'
p3376
I1
sS'respect'
p3377
I1
sS'kleihues'
p3378
I2
sg2036
I2
sS'considering'
p3379
I1
sg2563
I1
sg514
I2
sg1967
I1
sS'relocation'
p3380
I1
sS'system'
p3381
I1
sg2939
I1
sS'los'
p3382
I1
sg1715
I1
sS'renovations'
p3383
I1
sg1282
I1
sS'ceiling'
p3384
I2
sg2944
I2
sg521
I1
sS'rhythms'
p3385
I1
sS'inaugurated'
p3386
I1
sS'hints'
p3387
I1
sg3210
I1
sS'applying'
p3388
I1
sg3101
I1
sg245
I1
sg815
I1
sS'below'
p3389
I1
sS'architect'
p3390
I1
sg90
I2
sS'caf'
p3391
I3
sS'proportions'
p3392
I2
sg2766
I1
sS'grid-based'
p3393
I1
sS'dropped'
p3394
I1
sg1658
I1
sg3243
I1
sg275
I2
sS'ideas'
p3395
I1
sS'rapport'
p3396
I1
sg107
I1
sg1922
I1
sS'predominant'
p3397
I1
sg1589
I1
sg182
I1
sS'josef'
p3398
I1
sg403
I1
sS'hired'
p3399
I1
sS'plan'
p3400
I1
sS'inserted'
p3401
I1
sg1406
I4
sg2509
I1
sS'mezzanine'
p3402
I1
sg819
I5
sS'lakefront'
p3403
I1
sg853
I1
ssS'00208'
p3404
(dp3405
S'puetz'
p3406
I1
sS'holds'
p3407
I1
sS'lyrics'
p3408
I1
sS'morrissey'
p3409
I1
sg565
I2
sg272
I2
sS'questions'
p3410
I1
sS'advertised'
p3411
I1
sS'assembled'
p3412
I1
sg307
I1
sg459
I2
sS'ads'
p3413
I1
sS'earned'
p3414
I1
sg1606
I1
sS'pathos'
p3415
I1
sg574
I1
sS'won'
p3416
I1
sS'evidenced'
p3417
I1
sS'note-for-note'
p3418
I1
sS'first-generation'
p3419
I1
sg3270
I1
sS'confession'
p3420
I1
sg2344
I1
sS'matches'
p3421
I1
sg2245
I1
sS'interconnectedness'
p3422
I1
sS'anxiety'
p3423
I1
sg2586
I1
sg542
I1
sS'front'
p3424
I1
sg951
I1
sS'moody'
p3425
I1
sg585
I1
sS'contributes'
p3426
I1
sg586
I1
sS'inviting'
p3427
I1
sg860
I1
sS'scenic'
p3428
I1
sS'performers'
p3429
I2
sS"collins's"
p3430
I1
sg1251
I1
sS'renditions'
p3431
I1
sS'radio'
p3432
I1
sS'passionate'
p3433
I1
sg2247
I1
sg1475
I1
sS'honesty'
p3434
I1
sS'self-expression'
p3435
I1
sg480
I1
sg732
I1
sg607
I1
sS'album'
p3436
I2
sS'lead'
p3437
I1
sg2809
I1
sS'subsequent'
p3438
I1
sS'emotions'
p3439
I1
sS'droves'
p3440
I1
sS'ubiquity'
p3441
I1
sS'self-consciousness'
p3442
I1
sS'fans'
p3443
I1
sg825
I1
sS'intersect'
p3444
I1
sg341
I1
sS'collins'
p3445
I5
sg2601
I1
sg436
I1
sg2910
I1
sg345
I1
sS'melancholy'
p3446
I1
sS'trajectories'
p3447
I1
sg743
I1
sS'ability'
p3448
I1
sg350
I1
sS'compilation'
p3449
I1
sg495
I1
sS'smiths'
p3450
I4
sS'embarrassment'
p3451
I1
sS'formation'
p3452
I1
sS'singers'
p3453
I1
sS'sentimentality'
p3454
I1
sS'language'
p3455
I1
sg2308
I1
sg2432
I1
sS'british'
p3456
I1
sS'sensitive'
p3457
I1
sg222
I1
sS'musicians'
p3458
I1
sg3023
I1
sg1009
I1
sS'barriers'
p3459
I1
sg2826
I1
sS'teenage'
p3460
I1
sg33
I1
sS'escuchar'
p3461
I2
sg1836
I2
sS'signature'
p3462
I1
sS'visible'
p3463
I1
sg2831
I1
sS'block-print'
p3464
I1
sS'singing'
p3465
I1
sg2164
I1
sS'trilogy'
p3466
I1
sg1489
I1
sg1968
I1
sS'citywide'
p3467
I1
sS'travelled'
p3468
I1
sS'postdoctoral'
p3469
I1
sS'listen'
p3470
I1
sg982
I1
sS'sessions'
p3471
I1
sS'andrew'
p3472
I1
sS'instrumental'
p3473
I1
sS'failure'
p3474
I1
sg667
I1
sS'karaoke'
p3475
I3
sS'sound'
p3476
I1
sg291
I1
sg83
I1
sS'colombians'
p3477
I1
sS'showed'
p3478
I1
sS'versions'
p3479
I2
sS'mellon'
p3480
I1
sg528
I1
sS'recording'
p3481
I1
sg2630
I1
sg2633
I1
sS'lighthearted'
p3482
I1
sS'transcend'
p3483
I1
sS'indonesia'
p3484
I1
sS'videos'
p3485
I1
sg315
I1
sg2638
I1
sg595
I1
sg16
I1
sg1980
I2
sS'fellow'
p3486
I1
sg98
I1
sS'sincerity'
p3487
I1
sS'seem'
p3488
I1
sg2767
I2
sS'vulnerable'
p3489
I1
sg1851
I1
sg1450
I2
sS'perform'
p3490
I1
sg536
I1
sS'boxing'
p3491
I1
sS'provokes'
p3492
I1
sg2795
I1
sS'transformative'
p3493
I1
sg400
I2
sg2681
I1
sg1589
I1
sg1674
I1
sS'moving'
p3494
I1
sg275
I1
sg2235
I1
sg112
I1
sS'posters'
p3495
I2
sS'nomination'
p3496
I1
sg1300
I1
sS'identity'
p3497
I1
sS'bogot'
p3498
I1
sS'michelle'
p3499
I1
sS'singer'
p3500
I1
sS'band'
p3501
I2
sS'angst'
p3502
I1
sg3114
I1
sS'phil'
p3503
I1
sS'lost'
p3504
I1
sS'fluent'
p3505
I1
sS'alienation'
p3506
I1
sS'rallies'
p3507
I1
sS'serious'
p3508
I1
sg706
I1
sS'songs'
p3509
I1
ssS'00210'
p3510
(dp3511
g135
I1
sS'commissions'
p3512
I2
sg565
I1
sg140
I1
sg1930
I1
sg272
I1
sg193
I2
sS'naomi'
p3513
I1
sg1446
I1
sg944
I1
sg428
I1
sS'young'
p3514
I1
sg461
I1
sS'degrees'
p3515
I1
sg922
I1
sg18
I1
sg1820
I1
sg2245
I1
sg578
I1
sg469
I1
sg1326
I1
sg955
I1
sg2011
I1
sS'turns'
p3516
I1
sS'hunt'
p3517
I10
sg56
I1
sg325
I1
sS'fields'
p3518
I1
sS'monumentally'
p3519
I1
sS'discussing'
p3520
I1
sS'locating'
p3521
I1
sS'smaller'
p3522
I1
sg1824
I1
sg1416
I1
sg400
I1
sg484
I1
sg1876
I1
sS'reconciliation'
p3523
I1
sg2808
I1
sg2809
I4
sS'scrap'
p3524
I1
sS'fellowship'
p3525
I1
sg2533
I1
sg2811
I1
sg153
I3
sg1134
I1
sg1026
I1
sg1260
I3
sg2910
I1
sg2212
I1
sg3087
I1
sg286
I1
sg497
I1
sg145
I1
sS'accompanied'
p3526
I1
sg1776
I1
sg2346
I1
sg55
I1
sg502
I1
sg2253
I1
sg629
I2
sS'welded'
p3527
I1
sS'accomplished'
p3528
I1
sS'interactive'
p3529
I1
sS'midway'
p3530
I1
sS'jersey'
p3531
I1
sS'beckwith'
p3532
I1
sg641
I1
sS'industrial'
p3533
I1
sg132
I2
sS'scaled'
p3534
I1
sS'spans'
p3535
I1
sg1167
I1
sg510
I1
sg3311
I1
sg1128
I1
sg3222
I1
sS'cultivation'
p3536
I1
sg86
I1
sg1281
I1
sg372
I1
sg769
I1
sg2427
I1
sg2944
I4
sS'larry'
p3537
I1
sg986
I1
sg3321
I1
sg83
I1
sg85
I1
sg1621
I1
sS'thirty-five'
p3538
I2
sg92
I2
sg2736
I1
sg299
I1
sS'resident'
p3539
I1
sS'guggenheim'
p3540
I1
sg79
I1
sg595
I1
sg390
I1
sS'lifetime'
p3541
I1
sg536
I1
sg1001
I1
sS'airport'
p3542
I1
sS'illinois'
p3543
I1
sg2203
I1
sg164
I1
sg257
I1
sS'development'
p3544
I1
sS'map'
p3545
I1
sg333
I1
sg2051
I1
sg1351
I1
sg258
I1
sS'award'
p3546
I1
sS'student'
p3547
I1
sg2687
I1
sg1406
I1
sg552
I1
sg1034
I5
sg1107
I1
sg407
I1
sg263
I1
sg2953
I1
sg867
I1
ssS'00211'
p3548
(dp3549
g135
I1
sg2869
I1
sS'ever-changing'
p3550
I1
sS'move'
p3551
I1
sg270
I1
sg565
I2
sg3356
I1
sg192
I1
sg8
I1
sS'knowledge'
p3552
I1
sg1024
I1
sS'then-mayor'
p3553
I1
sg2880
I1
sg16
I1
sg3129
I1
sg2244
I1
sg2291
I1
sg1691
I1
sg471
I1
sg2202
I3
sS'flamingo'
p3554
I2
sg1329
I1
sg29
I1
sg56
I1
sg3003
I1
sS'festivities'
p3555
I1
sg2247
I1
sS'arp'
p3556
I1
sS'declared'
p3557
I1
sS'parade'
p3558
I1
sg908
I1
sg493
I1
sg480
I1
sg279
I1
sg330
I1
sg950
I1
sS'static'
p3559
I1
sg912
I1
sS'hosted'
p3560
I1
sg1623
I1
sg1143
I1
sg3016
I1
sg2808
I1
sg2809
I7
sg616
I2
sg2533
I1
sg2475
I1
sg3015
I1
sg1134
I1
sS'ever'
p3561
I1
sg2910
I1
sg1522
I1
sg1292
I1
sS'housed'
p3562
I1
sg510
I1
sg2421
I1
sS'contemplate'
p3563
I1
sS'calder'
p3564
I10
sS'invite'
p3565
I1
sS'dedication'
p3566
I1
sg354
I1
sg747
I1
sS'revolutionary'
p3567
I1
sS'acquiring'
p3568
I1
sS'carried'
p3569
I1
sg629
I1
sS'duchamp'
p3570
I1
sg3023
I1
sS'comes'
p3571
I1
sS'horwich'
p3572
I3
sg995
I1
sg641
I1
sg146
I3
sS'presence'
p3573
I1
sg128
I1
sS'befriending'
p3574
I1
sg132
I1
sg1366
I1
sS'engineer'
p3575
I1
sg574
I1
sg1527
I1
sg3311
I2
sg233
I1
sg76
I1
sg2136
I1
sS'cared'
p3576
I1
sg2618
I1
sS'mobiles'
p3577
I2
sg282
I1
sS'supporters'
p3578
I1
sS'club'
p3579
I1
sS'stabiles'
p3580
I2
sg2944
I4
sg470
I3
sg3041
I1
sg986
I1
sS'ceremonies'
p3581
I1
sS'applied'
p3582
I1
sg865
I1
sg2587
I1
sg85
I1
sg478
I1
sS'circus-themed'
p3583
I1
sS'air'
p3584
I1
sg1832
I1
sg2667
I1
sS'exploration'
p3585
I1
sg384
I1
sg92
I1
sg2714
I1
sg2517
I1
sg3239
I1
sg86
I1
sg1379
I1
sg595
I1
sS'marcel'
p3586
I1
sS'in-depth'
p3587
I1
sS'helped'
p3588
I1
sg2960
I1
sg813
I1
sg104
I1
sS'angle'
p3589
I1
sg3395
I1
sS'activated'
p3590
I1
sg1731
I1
sS'ruth'
p3591
I1
sS'daley'
p3592
I1
sg3544
I1
sg2772
I1
sg169
I1
sg662
I1
sS'imagist'
p3593
I1
sg1034
I1
sS'mobile'
p3594
I1
sS'steady'
p3595
I1
sg120
I1
sS'jean'
p3596
I1
ssS'00212'
p3597
(dp3598
g135
I1
sg563
I1
sS'escobar'
p3599
I1
sg565
I1
sg140
I1
sg272
I1
sg199
I1
sS'diverge'
p3600
I1
sg2784
I1
sg944
I1
sg1126
I2
sg195
I1
sg574
I1
sg1892
I1
sS'formative'
p3601
I1
sS'stable'
p3602
I1
sg417
I1
sS'careers'
p3603
I1
sg18
I1
sg577
I1
sg2885
I1
sS'visibly'
p3604
I1
sg578
I1
sg1836
I1
sS'legendary'
p3605
I1
sg1612
I1
sg951
I1
sg176
I1
sg2220
I1
sg1104
I1
sS'identified'
p3606
I1
sS'eleanor'
p3607
I1
sg33
I1
sg2592
I1
sg2910
I1
sS'titled'
p3608
I1
sg317
I1
sg330
I1
sg56
I1
sg271
I1
sg912
I1
sg209
I1
sg139
I1
sg211
I2
sg335
I1
sg214
I2
sg2809
I1
sg297
I1
sg1699
I1
sS'multifaceted'
p3609
I1
sS'side-by-side'
p3610
I1
sg153
I1
sg343
I1
sg2141
I1
sS'shows'
p3611
I1
sg493
I1
sS'attended'
p3612
I1
sg2419
I2
sg1346
I1
sg497
I1
sg866
I1
sg145
I1
sg365
I1
sg3157
I9
sS'affinities'
p3613
I1
sS'marked'
p3614
I1
sg169
I1
sg61
I2
sg750
I1
sg3462
I1
sg2031
I1
sS'karsten'
p3615
I1
sg595
I1
sg760
I1
sS'marisol'
p3616
I9
sg132
I1
sg508
I1
sg761
I1
sg2610
I1
sg1201
I1
sS'lund'
p3617
I1
sg2296
I1
sS'methods'
p3618
I1
sg510
I1
sg2704
I1
sg3311
I2
sg1449
I1
sS'pairing'
p3619
I1
sg76
I2
sg2038
I1
sg3170
I2
sg2637
I1
sg765
I1
sg1581
I1
sg1575
I1
sg2532
I1
sg82
I1
sg2944
I3
sg1709
I1
sS'ward'
p3620
I1
sS'sculptor'
p3621
I1
sg83
I2
sg85
I1
sg1792
I1
sS'similar'
p3622
I1
sg127
I1
sS'turned'
p3623
I1
sS'serial'
p3624
I1
sS'overtly'
p3625
I1
sg3241
I1
sS'respective'
p3626
I1
sS'perhaps'
p3627
I1
sg536
I1
sg1001
I1
sg265
I1
sg538
I2
sS'occasional'
p3628
I1
sg278
I1
sg1495
I1
sg3338
I1
sg3544
I1
sg1623
I1
sg2707
I1
sg1669
I1
sg2829
I1
sg258
I1
sg892
I1
sg2728
I1
sg3345
I1
sg1300
I1
sS'labor-intensive'
p3629
I1
sg1034
I2
sg117
I1
sS'castings'
p3630
I1
sg2119
I1
sg867
I3
sg121
I1
sg1016
I1
ssS'00213'
p3631
(dp3632
g455
I1
sS'writings'
p3633
I1
sg907
I1
sg3207
I1
sg711
I1
sg140
I1
sS'recycled'
p3634
I1
sg3533
I1
sg272
I1
sS'broader'
p3635
I1
sS'kinetic'
p3636
I1
sg2877
I2
sS'previous'
p3637
I1
sg307
I1
sg10
I1
sg739
I1
sg3514
I1
sg1490
I1
sg1042
I1
sg231
I1
sS'decades'
p3638
I1
sS'rezac'
p3639
I1
sg2883
I2
sg18
I1
sS'dan'
p3640
I2
sg1752
I1
sS'feigen'
p3641
I1
sg228
I1
sg168
I1
sg722
I1
sg3359
I1
sS'julia'
p3642
I1
sS'schools'
p3643
I1
sg199
I1
sg176
I1
sS'jeanne'
p3644
I2
sg584
I1
sg1870
I1
sS'peterman'
p3645
I2
sg56
I1
sg3076
I1
sg3054
I1
sS'referred'
p3646
I1
sg477
I1
sg374
I1
sg480
I1
sg481
I1
sS'kane'
p3647
I1
sS'artist-run'
p3648
I1
sg1875
I1
sg1447
I1
sg1667
I1
sS'degree'
p3649
I1
sg2808
I1
sg2809
I5
sg337
I1
sS'definite'
p3650
I1
sg1401
I1
sS'twins'
p3651
I1
sS'emerged'
p3652
I1
sg2250
I4
sg2784
I1
sg2815
I1
sS'lessons'
p3653
I1
sg621
I1
sg1292
I1
sS'fish'
p3654
I1
sg2143
I1
sS'environmentalists'
p3655
I1
sg2421
I1
sg1347
I1
sg2213
I1
sg747
I1
sg1528
I1
sg58
I2
sS'mitchell'
p3656
I1
sg61
I1
sg1399
I1
sg182
I2
sS'gregory'
p3657
I1
sS'attracting'
p3658
I1
sg1064
I1
sg806
I1
sg760
I1
sg3614
I1
sg2829
I1
sg70
I2
sg1607
I1
sS'landscape'
p3659
I1
sg510
I1
sg2704
I1
sg3311
I2
sg763
I2
sg514
I1
sg277
I1
sS'unrecognizable'
p3660
I1
sg127
I1
sg2618
I1
sS'historically'
p3661
I1
sg639
I1
sS'mike'
p3662
I1
sg96
I1
sg2944
I1
sS'philosophers'
p3663
I1
sS'environmental'
p3664
I1
sS'expressive'
p3665
I1
sg470
I1
sS'representational'
p3666
I1
sg3478
I1
sg85
I2
sS'theoretical'
p3667
I1
sS'employ'
p3668
I1
sg1792
I3
sg950
I1
sg2475
I1
sg1386
I1
sg2477
I1
sg90
I1
sg92
I1
sg299
I1
sS'strongly'
p3669
I1
sg1656
I1
sS'likewise'
p3670
I1
sg86
I3
sg282
I1
sg595
I1
sS'dunning'
p3671
I2
sg98
I1
sg392
I1
sS'saw'
p3672
I2
sg461
I1
sg274
I1
sg252
I1
sg3243
I1
sg2004
I1
sS'kelley'
p3673
I1
sg1001
I1
sg3395
I2
sg3263
I1
sS'poetic'
p3674
I1
sg1396
I1
sS'absorbed'
p3675
I1
sS'emphasize'
p3676
I1
sS'manglano-ovalle'
p3677
I2
sg363
I1
sg684
I1
sg719
I2
sS'blades'
p3678
I1
sg333
I2
sS'ray'
p3679
I1
sg3053
I1
sS'critics'
p3680
I1
sS'sustainability'
p3681
I1
sg697
I1
sS'nation'
p3682
I1
sg1300
I1
sg3497
I1
sS'modes'
p3683
I1
sg931
I1
sS'undeniable'
p3684
I1
sg819
I1
sg565
I1
sg263
I3
sg2493
I1
sS'qualities'
p3685
I1
sS'fashions'
p3686
I1
sS'sculptors'
p3687
I1
sS'position'
p3688
I1
sS'tasset'
p3689
I2
sg121
I1
ssS'00214'
p3690
(dp3691
g3128
I1
sg270
I1
sg565
I2
sg140
I1
sS'waltzes'
p3692
I1
sS'staff'
p3693
I1
sg107
I2
sS'dick'
p3694
I1
sS'lake'
p3695
I1
sS'fruitful'
p3696
I1
sg1042
I1
sS'quicksteps'
p3697
I1
sg1320
I1
sS'string'
p3698
I1
sg2377
I1
sS'sixty-two'
p3699
I1
sg722
I1
sg1612
I1
sg2829
I1
sS'cage'
p3700
I7
sg462
I1
sS'execute'
p3701
I1
sS'higgins'
p3702
I1
sg860
I1
sS'performing'
p3703
I1
sg56
I1
sS'fifty-six'
p3704
I1
sS'dip'
p3705
I1
sg3608
I1
sg317
I1
sg1696
I1
sg3545
I1
sg480
I1
sg3120
I2
sg484
I1
sg422
I1
sS'trace'
p3706
I1
sg2809
I6
sS'pictures'
p3707
I1
sg1699
I1
sS'written'
p3708
I1
sS'score'
p3709
I2
sg281
I1
sS'cellist'
p3710
I1
sg153
I1
sg2784
I1
sg492
I1
sg2815
I2
sS'opening'
p3711
I1
sg2421
I1
sS'notably'
p3712
I1
sg173
I1
sg1349
I1
sg967
I1
sS'collaborators'
p3713
I1
sg356
I1
sg2247
I1
sg2030
I1
sg1269
I1
sS'letters'
p3714
I1
sS'vicinity'
p3715
I1
sg508
I1
sS'composer'
p3716
I1
sg3311
I1
sS'festival'
p3717
I2
sg1839
I2
sg2618
I1
sS'john'
p3718
I1
sS'moorman'
p3719
I1
sg159
I1
sg1575
I1
sS'fluxus'
p3720
I1
sg2944
I11
sg470
I3
sS'knowles'
p3721
I1
sS'entered'
p3722
I1
sS'october'
p3723
I1
sg383
I1
sg815
I1
sg910
I1
sg2475
I1
sg1036
I1
sg1634
I1
sS'stopping'
p3724
I1
sg2635
I1
sg2636
I2
sg595
I1
sg3486
I1
sS'player'
p3725
I1
sg811
I1
sg394
I1
sS'decades-long'
p3726
I1
sg161
I1
sS'documents'
p3727
I1
sg536
I1
sg1309
I1
sg3356
I1
sS'nam'
p3728
I1
sg1543
I1
sS'paik'
p3729
I1
sS'marches'
p3730
I1
sS'june'
p3731
I1
sg169
I1
sS'demonstrating'
p3732
I1
sS'scores'
p3733
I1
sg288
I1
sg113
I1
sg3345
I1
sS'realized'
p3734
I1
sg779
I1
sS'allison'
p3735
I1
sg263
I2
sS'administered'
p3736
I1
sS'occasion'
p3737
I1
ssS'00215'
p3738
(dp3739
S'judgments'
p3740
I1
sg565
I1
sg2388
I1
sg193
I2
sg7
I1
sg8
I2
sS'self-absorbed'
p3741
I1
sS'developer'
p3742
I1
sS'trying'
p3743
I1
sS'segments'
p3744
I1
sS'post-apartheid'
p3745
I2
sg1921
I1
sg231
I1
sS'kentridge'
p3746
I5
sS'suffered'
p3747
I1
sg1686
I2
sS'alter'
p3748
I1
sS'complaint'
p3749
I2
sS'march'
p3750
I1
sg1141
I1
sS'background'
p3751
I1
sg172
I1
sg951
I1
sg2588
I1
sg1692
I1
sg3504
I1
sS'opera'
p3752
I1
sg1548
I2
sg3138
I1
sg56
I1
sS'truth'
p3753
I2
sS'activity'
p3754
I3
sg3526
I1
sS'amnesty'
p3755
I1
sS'entirety'
p3756
I1
sS'sketches'
p3757
I1
sg1416
I1
sg480
I1
sg330
I1
sS'exuberant'
p3758
I1
sg209
I1
sg962
I1
sg210
I1
sg3083
I1
sg3523
I2
sg44
I1
sS'detect'
p3759
I1
sg2809
I2
sg2829
I1
sS'catalogue'
p3760
I1
sg2877
I1
sg2784
I1
sg1260
I1
sS'teitlebaum'
p3761
I1
sS'wears'
p3762
I1
sg2421
I1
sS'weary'
p3763
I1
sS'poignant'
p3764
I1
sS'although'
p3765
I1
sS'memorable'
p3766
I1
sS'animated'
p3767
I2
sg356
I1
sg1269
I1
sg223
I1
sg1958
I2
sg1778
I1
sS'strangeness'
p3768
I1
sS'eckstein'
p3769
I1
sS'africa'
p3770
I2
sS'latter'
p3771
I1
sS'lies'
p3772
I1
sg508
I1
sS'reparations'
p3773
I1
sS'owner'
p3774
I1
sS'considers'
p3775
I1
sg342
I1
sS'erased'
p3776
I1
sg3311
I1
sS'basis'
p3777
I1
sg514
I1
sg76
I1
sS'specifically'
p3778
I1
sS'variously'
p3779
I1
sg1279
I1
sS'live'
p3780
I1
sg979
I1
sS'rooted'
p3781
I1
sg1374
I2
sg2099
I1
sg765
I2
sg2618
I1
sg700
I1
sS'indeterminacy'
p3782
I1
sg1969
I1
sg2944
I5
sS'gripped'
p3783
I1
sg519
I1
sg470
I1
sg1503
I1
sg242
I1
sS'believe'
p3784
I1
sg929
I2
sg1991
I1
sg381
I1
sS'hearings'
p3785
I1
sS'romantic'
p3786
I1
sg2475
I1
sg384
I1
sS'arrive'
p3787
I1
sg299
I3
sS'stated'
p3788
I1
sS'felix'
p3789
I2
sg595
I1
sg2761
I1
sg865
I1
sg996
I1
sg681
I1
sg2046
I1
sS'recover'
p3790
I1
sg785
I2
sg1292
I1
sg104
I1
sS'silhouette'
p3791
I1
sS'pinstriped'
p3792
I1
sS'portage'
p3793
I2
sg2851
I2
sg730
I2
sS'struggles'
p3794
I1
sS'johannesburg'
p3795
I1
sS'commentary'
p3796
I1
sS'stalwart'
p3797
I1
sg1495
I1
sg400
I1
sS'french-language'
p3798
I1
sg1298
I1
sS'egos'
p3799
I1
sg999
I1
sg2172
I1
sS'characters'
p3800
I1
sS'ethics'
p3801
I1
sS'pages'
p3802
I1
sS'morality'
p3803
I1
sg2190
I1
sg844
I1
sg427
I1
sS'dramatic'
p3804
I1
sS'encyclopedia'
p3805
I1
sS'soho'
p3806
I1
sS'vintage'
p3807
I1
sS'understand'
p3808
I1
sg699
I1
sS'operate'
p3809
I1
sS'torn-paper'
p3810
I1
sg410
I3
ssS'00113'
p3811
(dp3812
S'spurred'
p3813
I1
sg135
I1
sg941
I1
sg370
I1
sS'moments'
p3814
I1
sg564
I2
sS'alternatives'
p3815
I1
sg140
I1
sg457
I1
sS'looks'
p3816
I1
sS'resonate'
p3817
I1
sS'eyes'
p3818
I1
sS'generous'
p3819
I1
sg459
I1
sg428
I1
sg821
I1
sg1921
I1
sg1024
I1
sg432
I1
sS'helps'
p3820
I1
sg463
I1
sg688
I1
sS'defining'
p3821
I1
sS'hope'
p3822
I1
sS'correspondence'
p3823
I1
sg291
I1
sS'conversations'
p3824
I2
sg1906
I1
sg19
I1
sg168
I1
sg83
I1
sg580
I3
sg462
I1
sS'reignites'
p3825
I1
sg2444
I1
sg2072
I1
sg860
I2
sg3518
I1
sg28
I1
sg3606
I1
sg592
I5
sg593
I1
sS'output'
p3826
I1
sg3215
I1
sg1202
I1
sg317
I1
sS'catalogues'
p3827
I1
sS'surrounding'
p3828
I1
sg1773
I1
sg607
I9
sg209
I1
sg1460
I1
sg440
I1
sS'aim'
p3829
I1
sg1143
I1
sS'driving'
p3830
I1
sg2809
I1
sg297
I1
sg3146
I1
sg616
I1
sg2302
I1
sg914
I3
sg1880
I1
sg153
I4
sg1453
I1
sS'multitude'
p3831
I1
sg347
I1
sg621
I1
sg3711
I1
sg2913
I1
sS'residual'
p3832
I1
sg1346
I1
sg1450
I1
sg3765
I1
sg54
I1
sg58
I1
sS'involved'
p3833
I1
sS'presentations'
p3834
I1
sg222
I2
sg3373
I1
sS'invitation'
p3835
I1
sS'discussions'
p3836
I1
sS'catalyzed'
p3837
I1
sS'concretize'
p3838
I1
sg2257
I1
sS'reflected'
p3839
I1
sS'sampling'
p3840
I1
sS'reasserted'
p3841
I1
sS'unfolded'
p3842
I1
sg761
I1
sg2094
I1
sS'disciplinary'
p3843
I1
sg574
I1
sg763
I1
sg3314
I1
sg2939
I1
sg1372
I1
sg1376
I1
sg372
I1
sg595
I1
sg2528
I1
sg3533
I1
sS'illuminates'
p3844
I1
sg470
I1
sS'professionals'
p3845
I1
sg3210
I1
sg85
I5
sg528
I1
sg815
I2
sg2475
I2
sg384
I2
sS'concepts'
p3846
I1
sg1235
I1
sg90
I1
sS'closing'
p3847
I1
sg1977
I1
sg299
I1
sg2322
I1
sg96
I1
sg678
I3
sg1642
I1
sS'discourse'
p3848
I1
sS'critique'
p3849
I1
sg996
I1
sS'vivify'
p3850
I1
sg394
I4
sg1985
I1
sg3241
I1
sg813
I1
sg1417
I1
sS'varied'
p3851
I1
sS'istanbul'
p3852
I1
sg275
I1
sg427
I1
sg536
I1
sg316
I1
sg3395
I1
sg3266
I1
sS'dilemmas'
p3853
I1
sg705
I1
sg1293
I1
sS'arguments'
p3854
I1
sS'then-current'
p3855
I1
sg1237
I1
sg1495
I1
sS'plans'
p3856
I1
sg694
I1
sS'crosscultural'
p3857
I1
sg1299
I1
sS'glimpses'
p3858
I1
sg3495
I1
sg2341
I1
sg2531
I1
sS'popularity'
p3859
I1
sS'implications'
p3860
I1
sg263
I2
sg867
I2
sS'definitions'
p3861
I1
sg1676
I1
ssS'00112'
p3862
(dp3863
g135
I1
sg1308
I1
sg370
I1
sg563
I1
sg3551
I1
sg140
I1
sS'course'
p3864
I1
sg756
I1
sS'nephew'
p3865
I1
sS'captured'
p3866
I1
sg2817
I1
sg2200
I1
sg1920
I2
sg1024
I1
sS'failed'
p3867
I1
sg14
I1
sg1867
I1
sS'locales'
p3868
I1
sg280
I1
sg1027
I1
sg16
I1
sS'bedrooms'
p3869
I1
sg19
I1
sS'famous'
p3870
I1
sg1101
I1
sS'preparing'
p3871
I1
sS'despite'
p3872
I1
sg1505
I1
sg817
I1
sg33
I1
sg594
I1
sS'vincent'
p3873
I2
sS'friendship'
p3874
I2
sg727
I1
sg125
I1
sS'decided'
p3875
I1
sg209
I2
sg1876
I3
sg609
I1
sg1667
I1
sS'burnham'
p3876
I1
sg1418
I1
sS'weekdays'
p3877
I1
sg214
I2
sS'sites'
p3878
I1
sS'libraries'
p3879
I2
sg619
I1
sg1612
I1
sg1260
I1
sS'complement'
p3880
I1
sS'men'
p3881
I1
sS'ryerson'
p3882
I1
sg866
I1
sS'ask'
p3883
I1
sS'residences'
p3884
I1
sS'cities'
p3885
I1
sg1528
I1
sg2730
I1
sS'search'
p3886
I1
sg3092
I1
sg629
I2
sS'professions'
p3887
I1
sS'settled'
p3888
I1
sS'already'
p3889
I1
sg146
I1
sg128
I1
sg1129
I1
sS'trained'
p3890
I1
sg1365
I1
sg1368
I7
sS'finally'
p3891
I1
sS'relations'
p3892
I1
sg197
I1
sS'archives'
p3893
I1
sg2618
I1
sS'direction'
p3894
I1
sg159
I1
sS"uncle's"
p3895
I1
sg167
I1
sg1480
I1
sS'gogh'
p3896
I8
sg896
I1
sS'counsel'
p3897
I1
sg83
I1
sg85
I1
sS'pollack'
p3898
I2
sg1792
I1
sS'fabulous'
p3899
I1
sg1386
I1
sg1723
I1
sS'willem'
p3900
I1
sS'remained'
p3901
I1
sg372
I2
sg998
I1
sg394
I1
sg396
I1
sS'wanderer'
p3902
I1
sS'note'
p3903
I1
sg153
I1
sS'frequented'
p3904
I1
sg1028
I1
sg2681
I1
sS'visits'
p3905
I1
sg695
I1
sg258
I1
sS'catton'
p3906
I1
sg794
I1
sg1107
I1
sg1012
I1
sg779
I1
sg257
I2
sS'dream'
p3907
I1
ssS'00110'
p3908
(dp3909
S'beauties'
p3910
I1
sg871
I1
sg303
I1
sg1742
I1
sg1309
I1
sS'edo'
p3911
I1
sg1930
I2
sg568
I2
sS'skill'
p3912
I1
sS'duplicated'
p3913
I1
sg986
I1
sS'destroyed'
p3914
I1
sS'insects'
p3915
I1
sg1818
I1
sS'preserved'
p3916
I1
sg576
I1
sS'format'
p3917
I1
sg2586
I1
sg951
I1
sg2665
I1
sg817
I1
sg954
I1
sg2075
I1
sS'trimmed'
p3918
I1
sg1945
I1
sg475
I1
sg3826
I1
sS'bamboo'
p3919
I1
sg2734
I1
sg2893
I2
sg2035
I1
sg330
I2
sg602
I1
sS'likely'
p3920
I1
sg209
I3
sg1623
I1
sS'lovers'
p3921
I1
sS'pasted'
p3922
I1
sg2667
I1
sg3443
I6
sg341
I1
sS'favored'
p3923
I1
sS'midpoint'
p3924
I1
sS'hiroshige'
p3925
I1
sS'seventh'
p3926
I1
sg3154
I2
sS'popularization'
p3927
I1
sg1527
I1
sg1791
I2
sg1038
I1
sg2432
I1
sg226
I3
sg756
I1
sg228
I2
sg132
I1
sg2444
I1
sg2447
I1
sg976
I1
sg3659
I1
sS'existed'
p3928
I1
sg354
I1
sS'eye'
p3929
I1
sg1371
I2
sS'therefore'
p3930
I1
sg1374
I1
sg2729
I1
sS'heat'
p3931
I1
sg470
I1
sg3808
I1
sg1525
I1
sg2339
I1
sg929
I1
sg85
I3
sS'soul'
p3932
I1
sg1792
I1
sg1793
I1
sS'shops'
p3933
I1
sS'specialized'
p3934
I1
sS"fans'"
p3935
I1
sS'sticks'
p3936
I1
sg249
I1
sS'lightweight'
p3937
I1
sg1395
I1
sS'fashionable'
p3938
I1
sS'comfort'
p3939
I1
sg2768
I1
sg2677
I1
sg540
I2
sS'difficult'
p3940
I1
sg400
I1
sS'ubiquitous'
p3941
I1
sg2681
I1
sg1589
I1
sS'delight'
p3942
I1
sg258
I3
sg697
I1
sg1404
I3
sS'why'
p3943
I1
sg844
I1
sS'utagawa'
p3944
I1
sg797
I1
sS'kabuki'
p3945
I2
ssS'00115'
p3946
(dp3947
g3
I1
sg561
I1
sg140
I1
sS'earth'
p3948
I1
sS'expressions'
p3949
I1
sg1089
I1
sS'worship'
p3950
I2
sg307
I1
sg27
I1
sg459
I1
sg231
I1
sg432
I1
sS'employed'
p3951
I1
sS'generously'
p3952
I1
sS'loaned'
p3953
I1
sg817
I1
sg1249
I2
sg2294
I1
sg1370
I1
sg860
I1
sg3412
I1
sS'celibacy'
p3954
I1
sg1615
I1
sS'england'
p3955
I1
sg908
I1
sS'chronology'
p3956
I1
sg732
I1
sg607
I1
sS'pavlovics'
p3957
I1
sg211
I1
sg336
I1
sg2681
I1
sg8
I1
sg340
I1
sg1883
I1
sS'shaker'
p3958
I2
sg2143
I1
sg3881
I1
sS'maine'
p3959
I1
sg3154
I1
sS'quite'
p3960
I1
sg497
I2
sg1703
I1
sS'faith'
p3961
I1
sS'dormitories'
p3962
I1
sg503
I1
sg220
I1
sg1634
I1
sg357
I1
sg2308
I1
sS'practiced'
p3963
I1
sS'honest'
p3964
I1
sg265
I2
sg968
I1
sg1399
I1
sg3732
I1
sg806
I1
sg129
I1
sS'synonymous'
p3965
I1
sg2797
I2
sg132
I1
sg2610
I1
sg3775
I1
sg1568
I1
sg514
I1
sg1867
I1
sS'utopian'
p3966
I1
sS'shakers'
p3967
I5
sg2618
I1
sg1281
I1
sS'survives'
p3968
I1
sg159
I1
sS'pavlovic'
p3969
I1
sS'frenzied'
p3970
I1
sg80
I1
sS'whirling'
p3971
I1
sg167
I1
sS'rigid'
p3972
I1
sg242
I1
sg1992
I1
sg380
I1
sS'peaked'
p3973
I1
sg381
I1
sg83
I1
sg1079
I1
sS'kentucky'
p3974
I1
sg1080
I1
sg2477
I1
sS'endured'
p3975
I1
sg299
I1
sg249
I1
sg782
I1
sg282
I1
sS'communal'
p3976
I1
sS'boasting'
p3977
I1
sS'dancing'
p3978
I1
sg222
I1
sS'virtuosic'
p3979
I1
sg1731
I1
sg1073
I1
sg1420
I1
sS'believers'
p3980
I1
sS'ownership'
p3981
I1
sg1504
I1
sS'derives'
p3982
I1
sS'austere'
p3983
I1
sS'humble'
p3984
I1
sg257
I1
ssS'00114'
p3985
(dp3986
g135
I1
sS'shot'
p3987
I1
sg565
I1
sS'far-reaching'
p3988
I1
sS'dirge'
p3989
I1
sg193
I1
sg2064
I2
sg132
I2
sg2836
I1
sg1606
I1
sS'seems'
p3990
I1
sg3514
I1
sg14
I1
sS'stenn'
p3991
I1
sg929
I1
sg1328
I1
sg1940
I1
sg18
I1
sg719
I1
sg1179
I1
sS'beam'
p3992
I1
sg1612
I1
sg199
I1
sS'shadow'
p3993
I1
sS'intersection'
p3994
I1
sS'gel'
p3995
I1
sg191
I1
sS'appearing'
p3996
I1
sg27
I1
sg860
I1
sS'remove'
p3997
I1
sS'grandfather'
p3998
I1
sS'try'
p3999
I1
sS'merge'
p4000
I1
sS'slide'
p4001
I1
sS'chandra'
p4002
I2
sg33
I1
sg2893
I2
sS'exceed'
p4003
I1
sg3141
I1
sg279
I1
sg3142
I1
sg331
I1
sg208
I1
sg485
I1
sg422
I1
sg209
I1
sg1460
I1
sS'doodle'
p4004
I1
sg44
I1
sg2806
I1
sg1023
I1
sS'psychic'
p4005
I1
sg616
I1
sg1453
I1
sg2753
I1
sg3367
I1
sg334
I1
sg1242
I1
sS'plotting'
p4006
I1
sg2706
I1
sg3611
I1
sg374
I1
sS'perfect'
p4007
I1
sg2143
I1
sS'night'
p4008
I1
sS'jointly'
p4009
I1
sS'mourning'
p4010
I1
sg286
I1
sS'jr'
p4011
I1
sS'separation'
p4012
I1
sS'alone'
p4013
I1
sg651
I1
sg2690
I2
sg356
I1
sS'shift'
p4014
I1
sg2151
I1
sS'energies'
p4015
I1
sg61
I1
sg1009
I1
sS'action'
p4016
I2
sS'symbolize'
p4017
I1
sS'nearby'
p4018
I1
sg756
I1
sS'projection'
p4019
I1
sg366
I1
sS'father'
p4020
I2
sg129
I1
sg76
I1
sg1707
I1
sS'enlarged'
p4021
I1
sS'interdependence'
p4022
I1
sS'whispering'
p4023
I1
sg369
I1
sg1711
I1
sS'metaphor'
p4024
I1
sS'transfer'
p4025
I1
sg277
I1
sg1129
I1
sS'stark'
p4026
I1
sg2939
I1
sg1968
I1
sS'polarities'
p4027
I1
sS'helicopter'
p4028
I1
sS'one-note'
p4029
I1
sg372
I1
sg79
I1
sg80
I1
sg1842
I1
sg1786
I1
sS'slides'
p4030
I1
sS'oppenheim'
p4031
I5
sS'repeatedly'
p4032
I1
sg3621
I1
sg1973
I1
sS'flares'
p4033
I1
sg3479
I1
sg85
I1
sS'bounds'
p4034
I2
sS'symbolically'
p4035
I1
sS'magnesium'
p4036
I1
sg246
I1
sS'meet'
p4037
I1
sS'my'
p4038
I1
sS'dissolve'
p4039
I1
sg2765
I1
sS'searchlight'
p4040
I1
sS'want'
p4041
I1
sS'whirls'
p4042
I2
sg394
I1
sS'dennis'
p4043
I2
sS'trumpet'
p4044
I1
sg103
I1
sg999
I1
sg536
I1
sg538
I2
sg107
I1
sS'causing'
p4045
I1
sg541
I2
sS'intergenerational'
p4046
I1
sg400
I1
sS'granddaughter'
p4047
I1
sg350
I1
sg891
I1
sg1300
I1
sg114
I2
sg700
I1
sg1991
I1
sg1992
I1
sg3114
I1
sg117
I2
sS'propels'
p4048
I1
sg867
I1
sg699
I1
sg801
I1
ssS'00508'
p4049
(dp4050
g1816
I1
sg780
I2
sg595
I1
sg140
I1
sS'message'
p4051
I1
sg570
I1
sg8
I1
sg1242
I1
sS'lyon'
p4052
I2
sg2856
I1
sg153
I1
sg789
I2
sg769
I1
sg1223
I1
sg578
I1
sS'whitney'
p4053
I1
sS'danny'
p4054
I2
sg860
I1
sg629
I1
sg28
I1
sg634
I1
sg265
I1
sS'future'
p4055
I1
sg145
I1
ssS'00501'
p4056
(dp4057
S'mainland'
p4058
I1
sS'hawaiian'
p4059
I1
sg1828
I1
sg75
I1
sS'bishop'
p4060
I1
sg732
I1
sg286
I1
sS'hawai'
p4061
I1
sg2510
I1
sS'honolulu'
p4062
I1
sg563
I1
sS'bernice'
p4063
I1
sS'pauahi'
p4064
I1
sg2115
I1
sg299
I1
ssS'00502'
p4065
(dp4066
g2517
I1
sg226
I1
sg480
I2
sg86
I1
sg132
I1
sg3120
I1
sS'centennial'
p4067
I1
sS'spanish'
p4068
I1
sS'elegies'
p4069
I1
sg570
I1
sg1527
I1
sS'one-room'
p4070
I1
sg1768
I1
sg574
I1
sg2232
I1
sg151
I1
sg2815
I1
sS'motherwell'
p4071
I1
sS'achenbach'
p4072
I1
sS'expressionist'
p4073
I1
sg1101
I1
sS'birth'
p4074
I1
sg986
I1
sg967
I1
sg634
I1
sS'afternoon'
p4075
I1
sg121
I1
sS'thirteen'
p4076
I1
ssS'00503'
p4077
(dp4078
g226
I2
sg135
I1
sg3105
I1
sg79
I1
sg565
I1
sg1848
I1
sg2257
I1
sg932
I1
sS'textual'
p4079
I1
sg574
I1
sS'construed'
p4080
I1
sS'anderson'
p4081
I1
sg690
I1
sg2377
I1
sg3115
I1
sg519
I1
sg1404
I1
sS'encourages'
p4082
I1
sS'suggested'
p4083
I1
sg3210
I1
sS'freely'
p4084
I1
sS'prompts'
p4085
I1
sg457
I1
sg1846
I1
sS'roam'
p4086
I1
ssS'00504'
p4087
(dp4088
g1488
I2
sS'rentathe'
p4089
I1
sg1589
I1
sS'oscar'
p4090
I2
sg833
I2
sS'retrospectivemar'
p4091
I1
sS'archive'
p4092
I1
sS'inez'
p4093
I1
sS'vinoodh'
p4094
I2
sS'matadin'
p4095
I1
sS'lamsweerde'
p4096
I1
sg1368
I1
sS'renta'
p4097
I1
sS'galleriesiinez'
p4098
I1
ssS'00505'
p4099
(dp4100
g226
I1
sg135
I1
sg249
I1
sg1960
I1
sg132
I1
sg258
I1
sg763
I1
sg3807
I1
sg616
I1
sg3381
I1
sg574
I1
sg972
I1
sg278
I1
sS'black'
p4101
I1
sg153
I1
sS'white'
p4102
I1
sg1026
I1
sg2459
I1
sS'davidson'
p4103
I2
sg2910
I1
sg1027
I1
sg371
I1
sS'grit'
p4104
I1
sg791
I1
sg891
I1
sS'photographers'
p4105
I1
sg169
I1
sg145
I1
sg723
I1
sg1505
I1
sg578
I1
sg1079
I1
sS'rights'
p4106
I1
sg220
I1
sS'subway'
p4107
I1
sg867
I1
sS'harlem'
p4108
I1
sg2031
I1
sS'acquisition'
p4109
I1
ssS'00506'
p4110
(dp4111
g2391
I1
sS'raffle'
p4112
I1
sS'seated'
p4113
I1
sg282
I1
sg330
I1
sg132
I1
sS'elegant'
p4114
I1
sg3045
I1
sS'gala'
p4115
I1
sS'bouquets'
p4116
I1
sg959
I1
sg1460
I1
sS'peonies'
p4117
I1
sg2131
I1
sS'picasso'
p4118
I1
sg2165
I1
sS"young's"
p4119
I1
sg2851
I1
sg3514
I1
sS'reservation'
p4120
I1
sg1867
I1
sg2496
I1
sS'lecture'
p4121
I1
sS'preview'
p4122
I1
sS'luncheons'
p4123
I1
sS'week'
p4124
I1
sS'monday'
p4125
I1
sg337
I1
sg833
I2
sg258
I1
sS'chance'
p4126
I1
sg2504
I1
sg951
I1
sg580
I1
sS'hockney'
p4127
I1
sg2822
I1
sg117
I1
sS'bay'
p4128
I1
sS'hydrangeas'
p4129
I1
sS'april'
p4130
I2
sS'luxury-prize'
p4131
I1
ssS'00507'
p4132
(dp4133
S'exclusive'
p4134
I1
sg780
I1
sg3140
I1
sg481
I1
sg595
I1
sg132
I1
sg681
I1
sg962
I1
sg570
I1
sg8
I1
sg916
I2
sg1967
I1
sg1293
I1
sg1026
I1
sg789
I1
sg403
I1
sg258
I1
sS'starring'
p4135
I1
sg585
I1
sg1352
I1
sS'critically'
p4136
I1
sg629
I1
sg3196
I1
sg634
I1
sg220
I1
sg265
I2
sS'mythology'
p4137
I1
ssS'00108'
p4138
(dp4139
g2124
I1
sS'labels'
p4140
I1
sg270
I1
sS'mission'
p4141
I1
sg191
I1
sS'convergence'
p4142
I1
sg192
I1
sg959
I1
sS'displaying'
p4143
I1
sg3412
I1
sg1242
I1
sg10
I1
sg459
I1
sg1606
I1
sS'denver'
p4144
I1
sg3128
I1
sg197
I1
sS'treatment'
p4145
I1
sg3638
I1
sg1976
I1
sg2739
I1
sg3069
I1
sg833
I1
sS'indigenous'
p4146
I1
sg168
I1
sS'viceregal'
p4147
I1
sg951
I1
sg817
I1
sg200
I1
sg462
I1
sg2762
I1
sS'signal'
p4148
I1
sg3606
I1
sg4001
I1
sS'officer'
p4149
I1
sg33
I1
sg3526
I1
sS'discovery'
p4150
I1
sg1759
I1
sg3142
I1
sg331
I1
sS'conventions'
p4151
I1
sg732
I1
sg271
I1
sg139
I1
sg1553
I1
sg611
I1
sg214
I2
sg2023
I1
sS'stops'
p4152
I1
sg8
I1
sg153
I1
sS'spanish-governed'
p4153
I1
sg3009
I1
sS'cartographer'
p4154
I1
sg2708
I1
sg1262
I1
sg51
I1
sS'fourteen'
p4155
I1
sg2424
I1
sg966
I1
sS'explorers'
p4156
I1
sg58
I2
sS'naval'
p4157
I1
sg1563
I1
sS'andes'
p4158
I1
sS'journey'
p4159
I1
sg61
I1
sg183
I1
sg1958
I4
sg756
I1
sg2154
I1
sg2520
I1
sS'app'
p4160
I2
sg1962
I1
sg1708
I1
sg4068
I1
sS'select'
p4161
I1
sg1967
I1
sg3314
I1
sg1092
I1
sg432
I1
sg1373
I1
sg2167
I1
sg2618
I1
sS'chicagoans'
p4162
I1
sg372
I1
sg159
I2
sS'offering'
p4163
I1
sS'newberry'
p4164
I1
sg665
I1
sg1335
I1
sS'brochure'
p4165
I1
sg1578
I1
sS'marilynn'
p4166
I1
sg2270
I1
sS'devices'
p4167
I1
sg991
I1
sg1792
I1
sg3585
I1
sg1036
I1
sS'guide'
p4168
I2
sg1794
I1
sg3485
I1
sg2958
I1
sS'biography'
p4169
I1
sg265
I1
sg107
I1
sS'ulloa'
p4170
I1
sS'bilingual'
p4171
I2
sS'thoma'
p4172
I1
sS'pre-hispanic'
p4173
I1
sg3611
I1
sg886
I1
sS'added'
p4174
I1
sg1073
I1
sg2416
I1
sS'ios'
p4175
I1
sg1301
I1
sg169
I2
sg113
I3
sg405
I1
sS'antonio'
p4176
I1
sg263
I1
sg257
I1
sS'audio'
p4177
I1
ssS'00109'
p4178
(dp4179
S'gu'
p4180
I2
sg564
I1
sS'planning'
p4181
I1
sg272
I2
sS'committee'
p4182
I1
sS'centers'
p4183
I1
sg2877
I1
sS'jules'
p4184
I1
sg1316
I1
sS'troubled'
p4185
I1
sg314
I1
sg3065
I1
sS'views'
p4186
I1
sS'sweeping'
p4187
I1
sg1250
I2
sS'proposals'
p4188
I1
sg725
I1
sg1152
I1
sg2295
I1
sS'communicated'
p4189
I1
sS'accessible'
p4190
I1
sg480
I1
sS'constitute'
p4191
I1
sg910
I1
sg209
I1
sg3876
I1
sg1143
I1
sg2809
I6
sg8
I1
sg619
I1
sg153
I1
sS'bird'
p4192
I1
sS'infrastructure'
p4193
I1
sS'belief'
p4194
I1
sg1343
I1
sg337
I1
sg927
I1
sg3712
I1
sS'strong'
p4195
I1
sg1528
I1
sg3455
I1
sg356
I1
sS'geometry'
p4196
I1
sS'citizens'
p4197
I1
sg265
I3
sg1358
I1
sS'insufficient'
p4198
I1
sS'residents'
p4199
I1
sg641
I1
sS'civic'
p4200
I1
sg367
I1
sg3303
I1
sg132
I1
sS'addressed'
p4201
I1
sS'proposing'
p4202
I1
sg510
I3
sg3035
I1
sS'remains'
p4203
I1
sS'transform'
p4204
I1
sg3892
I1
sS'authored'
p4205
I1
sg371
I4
sg3579
I1
sg519
I1
sg1503
I1
sS'goals'
p4206
I1
sS'authors'
p4207
I1
sS'illustrator'
p4208
I1
sS'extension'
p4209
I1
sS'advisors'
p4210
I1
sg777
I1
sg299
I1
sg2322
I2
sS'bennett'
p4211
I1
sS'need'
p4212
I1
sg3241
I1
sg3263
I1
sg1293
I2
sg256
I1
sg3053
I1
sg1223
I1
sg3403
I1
sg694
I1
sg258
I2
sg3400
I5
sg2235
I1
sS'commanding'
p4213
I1
sg2188
I1
sg3497
I1
sg552
I1
sg819
I1
sg2493
I1
sS'watercolors'
p4214
I1
sg3115
I1
sg1108
I1
ssS'00104'
p4215
(dp4216
g1362
I1
sg2322
I1
sg370
I3
sg3814
I1
sS'personhood'
p4217
I1
sg2241
I1
sg2871
I1
sS'actress'
p4218
I1
sS'airhead'
p4219
I1
sS'meticulously'
p4220
I1
sg272
I1
sg2873
I1
sg1086
I1
sS'happiness'
p4221
I1
sg2361
I1
sg1606
I2
sg1808
I1
sg2582
I1
sS'passage'
p4222
I1
sS're-create'
p4223
I1
sS'jazz'
p4224
I1
sg4101
I1
sS'printers'
p4225
I1
sg2232
I1
sS'piano'
p4226
I1
sS'dirges'
p4227
I1
sg1027
I2
sg315
I1
sg16
I1
sg2794
I1
sS'publicity'
p4228
I2
sg18
I1
sg316
I1
sg320
I1
sg130
I1
sS'chopinesque'
p4229
I1
sg565
I1
sg3626
I1
sg1689
I1
sS'richards'
p4230
I2
sg199
I1
sg3993
I1
sg132
I2
sg1457
I1
sS'fae'
p4231
I2
sg27
I2
sg2011
I1
sg712
I1
sg1871
I1
sS'routines'
p4232
I1
sS'guard'
p4233
I1
sg32
I1
sS'servant'
p4234
I1
sS'facsimile'
p4235
I1
sg851
I3
sS'shots'
p4236
I1
sg33
I1
sg611
I1
sS'moulding'
p4237
I1
sS'tru'
p4238
I1
sS'clothes'
p4239
I2
sg2890
I1
sg2017
I1
sg480
I1
sg528
I1
sg4191
I1
sg484
I1
sg209
I1
sg1622
I1
sS'hymn'
p4240
I1
sg1879
I1
sg612
I2
sS'said'
p4241
I1
sS'homeowner'
p4242
I1
sg798
I2
sS'uniform'
p4243
I1
sg2987
I1
sg153
I1
sg436
I1
sS'freed'
p4244
I1
sg3446
I1
sg3649
I1
sS'circumstance'
p4245
I1
sg1262
I1
sS'free'
p4246
I1
sg3883
I1
sg2166
I1
sS'stage'
p4247
I1
sS'vue'
p4248
I1
sS'gay'
p4249
I1
sg2429
I1
sg357
I1
sg181
I1
sg265
I1
sg2918
I1
sg1471
I1
sg3494
I1
sS'contribution'
p4250
I1
sg2925
I1
sg3230
I1
sS'credible'
p4251
I1
sg641
I1
sS'divide'
p4252
I1
sg717
I1
sg76
I3
sg4013
I1
sS'appropriate'
p4253
I1
sg3168
I1
sS'sounds'
p4254
I1
sS'contrasts'
p4255
I1
sS'researched'
p4256
I1
sS'behaving'
p4257
I1
sg3928
I1
sg2615
I1
sg514
I1
sg249
I1
sg1129
I1
sS'appears'
p4258
I1
sg1374
I1
sg3718
I1
sg3661
I1
sg372
I2
sg1717
I1
sg1283
I1
sS'tinged'
p4259
I1
sg226
I1
sg662
I1
sS'photos'
p4260
I1
sS'tandem'
p4261
I1
sg143
I1
sg773
I1
sg842
I1
sg1578
I3
sS'roles'
p4262
I1
sg85
I1
sg1187
I1
sg1621
I1
sS'untitled'
p4263
I1
sg2630
I1
sS'weren'
p4264
I1
sg1036
I1
sS'art-house'
p4265
I1
sS'in-kind'
p4266
I1
sg1981
I1
sS'actresses'
p4267
I1
sg779
I1
sg764
I1
sg2637
I1
sS'household'
p4268
I1
sS'inhabits'
p4269
I1
sg1642
I1
sS'promotional'
p4270
I1
sS'one-person'
p4271
I1
sg391
I1
sS'gemini'
p4272
I1
sg117
I1
sg3488
I1
sg4092
I2
sg785
I3
sg3049
I1
sg396
I1
sS'zoe'
p4273
I1
sg426
I1
sg427
I1
sg2851
I2
sg718
I1
sg222
I1
sg538
I1
sS'stills'
p4274
I3
sS'mix'
p4275
I1
sg919
I1
sS'corridor'
p4276
I1
sS'papers'
p4277
I1
sg435
I1
sS'ordinary'
p4278
I1
sg684
I2
sg886
I1
sS'persona'
p4279
I1
sS'slave'
p4280
I1
sg1073
I1
sS'communicating'
p4281
I1
sg1395
I1
sg2972
I4
sS'convincing'
p4282
I1
sS'genres'
p4283
I1
sS'prepared'
p4284
I1
sS'soundtrack'
p4285
I1
sg336
I2
sg697
I1
sg3800
I3
sS'nothing'
p4286
I1
sg2551
I1
sg3500
I1
sS'maybe'
p4287
I1
sS'modeled'
p4288
I1
sg3347
I1
sg1013
I2
sg2865
I1
sg867
I1
sS'echoes'
p4289
I1
sS'musical'
p4290
I1
sg2332
I1
ssS'00105'
p4291
(dp4292
g3864
I1
sS'cameron'
p4293
I2
sg570
I1
sg944
I1
sg1867
I1
sg4101
I1
sS'albumen'
p4294
I1
sg3417
I1
sS'circle'
p4295
I1
sg1027
I3
sS'painterly'
p4296
I1
sg719
I4
sg1906
I1
sg1612
I1
sg1929
I1
sg2072
I2
sS'crisp'
p4297
I1
sg79
I1
sS'glossary'
p4298
I1
sg3826
I1
sg2748
I1
sS'turn-of-the-century'
p4299
I1
sS'pictorialism'
p4300
I1
sS'pictorialist'
p4301
I2
sg209
I2
sg998
I1
sg611
I1
sg751
I1
sS'reprinting'
p4302
I1
sS'tirelessly'
p4303
I1
sg738
I1
sS'alfred'
p4304
I1
sS'hill'
p4305
I2
sg153
I2
sg2910
I1
sS'edited'
p4306
I1
sS'stieglitz'
p4307
I6
sg3712
I1
sg1955
I1
sg145
I1
sg1182
I1
sg173
I1
sg3886
I1
sS'margaret'
p4308
I1
sg629
I1
sg2849
I1
sS'prior'
p4309
I1
sg1399
I1
sS'published'
p4310
I1
sg2031
I1
sg226
I4
sg756
I2
sg146
I1
sS'fostering'
p4311
I1
sg1198
I1
sg3642
I1
sS'steichen'
p4312
I1
sS'scottish'
p4313
I1
sg1449
I1
sS'duo'
p4314
I1
sg514
I1
sg1316
I1
sg920
I1
sS'intently'
p4315
I1
sg982
I1
sg2262
I2
sg80
I1
sg1768
I1
sg664
I2
sg470
I1
sg773
I5
sS'valued'
p4316
I1
sg3478
I1
sg85
I1
sS'photogravures'
p4317
I1
sg776
I1
sS'reproduction'
p4318
I1
sS'promoted'
p4319
I1
sS'medialearn'
p4320
I1
sg92
I1
sg299
I2
sg1476
I1
sg249
I2
sg282
I1
sg595
I1
sg1726
I1
sS'audiences'
p4321
I1
sS'octavius'
p4322
I1
sg3243
I1
sg396
I1
sS'ancestors'
p4323
I1
sS'revisit'
p4324
I1
sg107
I1
sS'fledgling'
p4325
I1
sS'several'
p4326
I1
sg3611
I1
sg3338
I1
sS'half-century'
p4327
I1
sS'adamson'
p4328
I2
sg2503
I2
sg403
I1
sg258
I1
sg169
I1
sS'resonated'
p4329
I1
sg1405
I1
sg113
I1
sg2862
I1
sg214
I1
sg779
I2
sg2652
I1
sS'looked'
p4330
I1
sg257
I1
sS'salt'
p4331
I1
sS'decision'
p4332
I1
sS'reprinted'
p4333
I1
ssS'00106'
p4334
(dp4335
g3757
I1
sS'atmosphere'
p4336
I1
sS'plastics'
p4337
I1
sg907
I1
sg146
I1
sg250
I1
sg1863
I1
sg1441
I1
sg1442
I1
sS'feel'
p4338
I1
sS'buildings'
p4339
I1
sg457
I1
sS'learning'
p4340
I1
sS'laminates'
p4341
I1
sg1667
I1
sg815
I1
sg2704
I1
sS'adjaye'
p4342
I1
sg3035
I1
sg763
I1
sg2809
I1
sg1606
I1
sg514
I3
sg245
I1
sS'texture'
p4343
I1
sg237
I1
sg1892
I1
sS'board'
p4344
I1
sS'samples'
p4345
I1
sg469
I1
sS'arrange'
p4346
I1
sg592
I1
sg1926
I1
sS'tiles'
p4347
I1
sg282
I1
sg1374
I1
sg80
I1
sg1179
I1
sg694
I1
sg1301
I2
sg168
I1
sg2985
I1
sg1300
I1
sg972
I1
sg552
I1
sg1406
I1
sg3845
I1
sg1884
I1
sg58
I1
sg27
I2
sg664
I1
sg2822
I1
sS'grant'
p4348
I1
sS'funded'
p4349
I1
sS'ryan'
p4350
I1
sg2849
I1
sg32
I1
sg263
I2
sg3390
I1
sg384
I1
sg1399
I1
sS'invites'
p4351
I1
sg3529
I1
ssS'00107'
p4352
(dp4353
g2352
I1
sg430
I1
sg561
I1
sg871
I1
sS'hierarchy'
p4354
I1
sS'indeed'
p4355
I1
sg270
I1
sg3911
I1
sg140
I1
sg135
I1
sg951
I1
sg568
I1
sS'diagonally'
p4356
I1
sS'mitered'
p4357
I1
sg1089
I1
sS'outer'
p4358
I1
sS'kimonos'
p4359
I1
sS'patched'
p4360
I1
sg151
I1
sg280
I1
sg2128
I1
sS'kesa'
p4361
I7
sg281
I1
sS'robe'
p4362
I1
sS'columns'
p4363
I2
sS'robes'
p4364
I2
sg1291
I1
sS'rings'
p4365
I1
sg1101
I1
sg1117
I1
sg172
I1
sS'turbulence'
p4366
I1
sg909
I1
sS'fabrics'
p4367
I2
sS'shoulder'
p4368
I1
sg2745
I1
sS'corners'
p4369
I1
sS'dyeing'
p4370
I1
sS'intricacy'
p4371
I1
sS'donations'
p4372
I1
sS'wearer'
p4373
I1
sg33
I1
sg1618
I1
sg1619
I1
sS'allusion'
p4374
I1
sg908
I1
sg1416
I1
sS'garment'
p4375
I6
sg330
I2
sS'monks'
p4376
I1
sg400
I1
sS'past'
p4377
I1
sS'buddha'
p4378
I1
sg912
I3
sS'loops'
p4379
I1
sg962
I1
sS'rectangular'
p4380
I1
sg1123
I3
sg1623
I1
sg725
I1
sS'reused'
p4381
I1
sg1828
I1
sS'ralph'
p4382
I1
sg1093
I1
sS'trapezoidal'
p4383
I1
sS'fragments'
p4384
I2
sS'squares'
p4385
I1
sS'temple'
p4386
I1
sg3611
I1
sS'wear'
p4387
I1
sg3765
I1
sS'defiance'
p4388
I1
sg459
I2
sg1873
I1
sS'priests'
p4389
I1
sg222
I1
sS'kasaya'
p4390
I1
sg3661
I1
sS'armpit'
p4391
I1
sS'usually'
p4392
I1
sS'meiji'
p4393
I1
sS'reinforced'
p4394
I1
sg2158
I2
sg756
I2
sg1273
I1
sS'mantle'
p4395
I1
sg806
I1
sg644
I1
sg129
I2
sg67
I1
sg228
I1
sg131
I1
sg2896
I1
sg317
I2
sg651
I1
sg3035
I1
sS'assumed'
p4396
I1
sg277
I1
sS'aristocratic'
p4397
I1
sg1371
I1
sg480
I1
sg516
I1
sg1378
I1
sg1574
I1
sS'mostly'
p4398
I1
sg1075
I1
sg602
I2
sS'draped'
p4399
I1
sS'cloth'
p4400
I1
sS'sanskrit'
p4401
I1
sS'hold'
p4402
I1
sg896
I1
sS'hays'
p4403
I1
sg83
I1
sg2587
I1
sg85
I1
sS'attached'
p4404
I1
sg1153
I3
sg2459
I1
sg1036
I1
sg532
I1
sg1796
I1
sg250
I1
sS'devotees'
p4405
I1
sg595
I1
sg3588
I1
sS'indicates'
p4406
I2
sg1981
I1
sg32
I1
sg1983
I1
sg396
I1
sg3186
I1
sg1853
I1
sg538
I1
sS'fortunate'
p4407
I1
sg107
I1
sg263
I1
sg256
I1
sg541
I1
sg968
I1
sS'reminder'
p4408
I1
sg4174
I1
sS'beginnings'
p4409
I1
sg1124
I1
sg2503
I1
sg258
I3
sg1652
I1
sg1226
I1
sg3982
I1
sg179
I1
sS'stress'
p4410
I1
sg1150
I3
sg3984
I1
sS'points'
p4411
I1
sg358
I1
sg1016
I1
sg2238
I1
ssS'00101'
p4412
(dp4413
g3
I1
sg135
I1
sS'kenneth'
p4414
I1
sg370
I1
sg3128
I1
sg2390
I1
sS'stability'
p4415
I1
sg2388
I1
sS'yonover'
p4416
I1
sg272
I1
sg193
I1
sS'bedroom'
p4417
I5
sS'digitally'
p4418
I1
sS'asylum'
p4419
I2
sg8
I1
sS'charlene'
p4420
I1
sg3122
I1
sg176
I3
sS'coolidge'
p4421
I1
sS'brenda'
p4422
I1
sg3124
I1
sg460
I1
sS'saint-r'
p4423
I2
sg14
I1
sg1867
I1
sg4344
I1
sS'beloved'
p4424
I2
sg841
I1
sS'identical'
p4425
I2
sg2794
I1
sg3952
I1
sg3869
I1
sS'truly'
p4426
I1
sg3870
I1
sS'quest'
p4427
I1
sS'kaplan'
p4428
I1
sS'closely'
p4429
I1
sg3896
I9
sg817
I1
sg2809
I1
sg471
I1
sg3316
I1
sS'illustrated'
p4430
I1
sg201
I1
sg649
I1
sg899
I1
sg2691
I1
sS'follows'
p4431
I1
sg3004
I1
sS'morris'
p4432
I1
sg33
I1
sg3873
I1
sg203
I1
sS'caryn'
p4433
I1
sg327
I1
sg3522
I1
sg2297
I1
sg1253
I2
sg959
I1
sg2815
I1
sg332
I1
sg3120
I1
sS'result'
p4434
I1
sg2750
I1
sS'concludes'
p4435
I1
sg1876
I3
sg1460
I1
sS'nests'
p4436
I1
sS'mason'
p4437
I1
sg611
I3
sg613
I1
sS'appear'
p4438
I1
sg214
I5
sg819
I2
sS'federal'
p4439
I1
sg215
I1
sg1768
I1
sg2904
I1
sg1168
I1
sg2533
I1
sg825
I2
sg1771
I1
sg1453
I1
sS'preserve'
p4440
I1
sg491
I5
sg2708
I1
sS'estate'
p4441
I1
sg350
I2
sS'threatened'
p4442
I1
sg285
I1
sg1349
I1
sS'indemnity'
p4443
I1
sg1449
I1
sS'sister'
p4444
I1
sg356
I2
sg629
I1
sS'residence'
p4445
I1
sg2822
I1
sS'allows'
p4446
I1
sg3587
I1
sg3834
I1
sg2849
I1
sS'became'
p4447
I1
sg968
I1
sS'jacquet'
p4448
I1
sg3529
I1
sS'margot'
p4449
I1
sg755
I1
sg756
I1
sg3714
I1
sg146
I2
sg2897
I1
sg1019
I1
sg132
I2
sS'amsterdam'
p4450
I1
sg1167
I1
sg914
I1
sg2704
I1
sg1368
I7
sS'often-misunderstood'
p4451
I1
sS'mcconville'
p4452
I1
sg2616
I3
sS'examined'
p4453
I1
sg1129
I5
sg235
I1
sg2038
I1
sg1371
I1
sg480
I1
sg4122
I1
sg2834
I1
sg157
I1
sg1523
I1
sS'dolores'
p4454
I1
sg4163
I1
sg2532
I2
sg2803
I1
sg3472
I1
sg664
I1
sg242
I1
sS'haven'
p4455
I1
sg1103
I1
sg3718
I1
sg1578
I1
sg3479
I1
sg85
I1
sg3437
I1
sg1792
I3
sS'determined'
p4456
I1
sg3585
I1
sS'v'
p4457
I1
sg90
I2
sg299
I2
sg3485
I1
sg1656
I1
sS'mind'
p4458
I1
sg1480
I1
sS'kohl'
p4459
I1
sS'novak'
p4460
I1
sS'chambre'
p4461
I1
sg677
I1
sg390
I1
sS'arles'
p4462
I2
sg813
I2
sg252
I1
sS'again'
p4463
I1
sS'enriching'
p4464
I1
sg926
I1
sS'cottages'
p4465
I2
sS'humanities'
p4466
I1
sg536
I1
sS'damage'
p4467
I1
sS'reality'
p4468
I2
sg107
I1
sg1003
I1
sg1805
I1
sg4326
I1
sS'corporate'
p4469
I1
sS'levy'
p4470
I1
sg1028
I1
sS'evonne'
p4471
I1
sg867
I2
sg258
I2
sg4126
I1
sS'harris'
p4472
I2
sg3494
I1
sS'delve'
p4473
I1
sg113
I1
sg700
I1
sS'longing'
p4474
I1
sS'mus'
p4475
I1
sg406
I1
sg3253
I1
sg1407
I2
sg117
I1
sS'constance'
p4476
I1
sg2939
I1
sS'gilchrist'
p4477
I1
sg1910
I1
sg2364
I1
sS'auvers-sur-oise'
p4478
I1
sg121
I1
sg853
I1
sg1676
I1
ssS'00102'
p4479
(dp4480
g4355
I1
sg565
I3
sS'roy'
p4481
I2
sg756
I1
sg272
I1
sg943
I1
sg33
I1
sS'prince'
p4482
I1
sS'gael'
p4483
I2
sg459
I1
sS'chosen'
p4484
I1
sS'lichtenstein'
p4485
I2
sg151
I2
sg280
I1
sg1027
I1
sg1321
I1
sg3952
I1
sS'unveiling'
p4486
I1
sS'murakami'
p4487
I1
sg1421
I1
sS'pop-culture'
p4488
I1
sS'reopened'
p4489
I1
sg1836
I3
sS'expressionism'
p4490
I1
sg1613
I1
sg200
I1
sS'adventurous'
p4491
I1
sg2684
I1
sg2691
I5
sg3864
I1
sg299
I1
sS'self-portraits'
p4492
I1
sg594
I1
sg1331
I1
sS'twombly'
p4493
I1
sg908
I2
sg4377
I1
sS'strongest'
p4494
I1
sg910
I1
sg3217
I1
sg209
I1
sg962
I2
sS'benefaction'
p4495
I1
sg1667
I1
sg214
I1
sg2809
I2
sg1768
I1
sg616
I2
sg8
I1
sg153
I1
sS'neeson'
p4496
I2
sS'terms'
p4497
I1
sg1193
I1
sS'stefan'
p4498
I2
sg2421
I1
sg1631
I2
sS'photography-based'
p4499
I1
sg497
I1
sg90
I1
sg2213
I1
sS'path'
p4500
I1
sg4195
I1
sS'edlis'
p4501
I3
sg2148
I1
sS'impressionism'
p4502
I1
sg1352
I1
sS'greater'
p4503
I1
sg2894
I1
sg2918
I1
sg3462
I1
sS'benefactors'
p4504
I1
sg3889
I1
sg2914
I1
sS'johns'
p4505
I2
sg131
I1
sg4204
I1
sg2444
I1
sS'cy'
p4506
I1
sg974
I1
sS'jasper'
p4507
I2
sg1709
I1
sg510
I1
sg2704
I1
sS'capable'
p4508
I1
sg233
I1
sg1349
I1
sS'charts'
p4509
I1
sg3314
I1
sg3170
I2
sS'compelling'
p4510
I1
sg1641
I1
sg1281
I1
sS'chapter'
p4511
I1
sg1642
I1
sg3157
I2
sg379
I1
sg83
I1
sg85
I1
sS'richer'
p4512
I1
sg991
I1
sg1846
I2
sg2759
I1
sS'gerhard'
p4513
I1
sg1977
I1
sS'richter'
p4514
I1
sS'virtuouso'
p4515
I1
sg4434
I1
sg1794
I1
sg249
I1
sS'december'
p4516
I1
sg86
I1
sg282
I1
sg678
I1
sg865
I1
sg996
I1
sg17
I1
sg1395
I1
sg274
I1
sg104
I1
sg536
I1
sg1001
I1
sg23
I1
sg107
I1
sg256
I1
sS'forge'
p4517
I1
sg1431
I1
sg211
I1
sg2921
I1
sS'sure'
p4518
I1
sS'critiques'
p4519
I1
sg2972
I1
sg258
I1
sS'riffs'
p4520
I1
sg76
I1
sg2235
I1
sg2808
I1
sg1034
I1
sg1107
I1
sg2509
I1
sg779
I1
sg253
I1
sg263
I1
sg2119
I1
sg1408
I1
sg2194
I1
sS'takashi'
p4521
I1
sS'latest'
p4522
I1
ssS'00103'
p4523
(dp4524
S'gates'
p4525
I1
sg3
I1
sS'sanctuary'
p4526
I1
sS'corps'
p4527
I1
sg370
I1
sg3915
I1
sg270
I1
sS'conserving'
p4528
I1
sg140
I3
sg2578
I2
sg2904
I1
sg1602
I1
sS'inspirations'
p4529
I1
sg272
I1
sg193
I3
sS'children'
p4530
I1
sg1242
I2
sg3122
I1
sg4422
I1
sg1024
I1
sg197
I2
sg3601
I1
sg4344
I1
sS'sierra'
p4531
I2
sg375
I1
sg1053
I2
sg922
I1
sg2695
I1
sS'borrowed'
p4532
I1
sg315
I1
sS'fire-damaged'
p4533
I1
sg2794
I1
sg161
I1
sg1906
I2
sg565
I1
sg4429
I1
sg469
I1
sg200
I1
sg3316
I1
sg191
I1
sg201
I1
sS'university'
p4534
I1
sg80
I1
sg3006
I3
sS'crayon'
p4535
I1
sg2247
I1
sg1111
I1
sg4101
I1
sS'kemper'
p4536
I1
sg2897
I1
sg1439
I1
sg3618
I1
sg74
I1
sg1253
I1
sg2803
I1
sg1047
I1
sS'anchored'
p4537
I1
sg4114
I1
sS'supportive'
p4538
I1
sg423
I1
sg2299
I1
sg611
I2
sg613
I1
sg2859
I2
sg2809
I2
sS'giving'
p4539
I1
sg1768
I1
sg1699
I1
sg1792
I1
sg1453
I1
sg1880
I1
sg2303
I1
sg436
I1
sS'uncanny'
p4540
I1
sg491
I1
sg1558
I1
sg3448
I1
sg1262
I2
sg2252
I1
sS'studio'
p4541
I1
sg365
I1
sg55
I1
sS'double-sided'
p4542
I1
sg356
I1
sg629
I1
sg2822
I1
sS'iterative'
p4543
I1
sg809
I1
sS'participating'
p4544
I1
sS'conversation'
p4545
I1
sg223
I1
sg461
I1
sg2925
I1
sg226
I2
sg132
I1
sg2527
I1
sg369
I1
sg649
I1
sg342
I1
sg510
I1
sg763
I1
sg3314
I2
sg1892
I1
sg1715
I1
sS'curtain'
p4546
I1
sg2618
I1
sg3271
I1
sS'rosenfield'
p4547
I2
sg1281
I1
sg372
I1
sg159
I1
sg1575
I1
sg3472
I1
sS'theaster'
p4548
I1
sg1818
I1
sg1224
I1
sg519
I1
sS'craft'
p4549
I1
sS'varying'
p4550
I1
sg242
I1
sg896
I1
sS'proto-sculptural'
p4551
I1
sg381
I1
sS'flora'
p4552
I1
sg1164
I1
sg1578
I1
sS'publicly'
p4553
I1
sg85
I2
sS'selections'
p4554
I1
sS'remaining'
p4555
I1
sS'lesser'
p4556
I1
sS'suggestive'
p4557
I1
sS'graphite'
p4558
I1
sg384
I1
sg4457
I1
sg92
I2
sS'devotion'
p4559
I1
sS'head-like'
p4560
I1
sS'cont'
p4561
I1
sg4414
I1
sg250
I3
sg595
I1
sg3270
I1
sg4339
I1
sS'loaning'
p4562
I1
sg394
I1
sS'catholic'
p4563
I1
sg1068
I1
sS'morton'
p4564
I1
sg616
I1
sg536
I2
sg2851
I1
sS'peace'
p4565
I1
sg3395
I1
sS'puryear'
p4566
I10
sg3756
I1
sg3493
I2
sg4326
I1
sg3544
I2
sg2276
I1
sg333
I1
sg2328
I2
sS'educational'
p4567
I1
sg258
I1
sS'levels'
p4568
I1
sg3547
I1
sg4470
I1
sg1301
I1
sg1034
I2
sg664
I2
sg4449
I1
sg779
I1
sg1407
I2
sS'spent'
p4569
I1
sg410
I2
sg2654
I1
sS'charitable'
p4570
I1
sg263
I1
sS'responded'
p4571
I1
sS'leone'
p4572
I2
ssS'00401'
p4573
(dp4574
g2123
I1
sS'kunstsammlung'
p4575
I1
sS'enormously'
p4576
I1
sS'invent'
p4577
I1
sg140
I2
sg8
I2
sS'sof'
p4578
I1
sS'nacional'
p4579
I1
sg1051
I1
sS'museo'
p4580
I1
sg4532
I1
sg16
I1
sg1390
I1
sg2885
I1
sg1179
I1
sS'framework'
p4581
I1
sS'underscore'
p4582
I1
sg3872
I1
sg2887
I1
sg899
I3
sg2894
I1
sg317
I1
sS'madrid'
p4583
I1
sg4377
I1
sg3120
I1
sg2399
I1
sg1254
I1
sS'reina'
p4584
I1
sS'humor'
p4585
I1
sg4475
I1
sg297
I1
sS'brief'
p4586
I1
sS'reunite'
p4587
I1
sg2250
I1
sg153
I1
sg436
I1
sg493
I1
sS'pense-b'
p4588
I1
sS'turning'
p4589
I1
sg497
I1
sg145
I1
sg365
I1
sS'aid'
p4590
I1
sS'retained'
p4591
I1
sg3455
I1
sg356
I1
sg629
I1
sS'large-scale'
p4592
I1
sg1709
I1
sS'balanced'
p4593
I1
sg229
I1
sS'aigles'
p4594
I1
sg763
I1
sS'trajectory'
p4595
I1
sS'copies'
p4596
I1
sS'next'
p4597
I1
sS'arte'
p4598
I1
sg77
I1
sS'eagles'
p4599
I1
sg2834
I1
sg1574
I1
sg372
I1
sg769
I1
sg595
I1
sg1224
I1
sg519
I1
sg521
I1
sg143
I1
sS'institution'
p4600
I1
sS'unsold'
p4601
I1
sg3723
I1
sg527
I1
sg220
I1
sg1792
I1
sg4055
I1
sg90
I1
sg385
I1
sg92
I2
sg912
I1
sS'dedicated'
p4602
I1
sg2954
I1
sS'moderne'
p4603
I1
sg2765
I1
sg79
I1
sg3623
I1
sg3586
I1
sg2528
I1
sg996
I1
sg390
I1
sS'nordrhein-westfalen'
p4604
I1
sg785
I1
sg80
I1
sg854
I1
sg2275
I1
sg3674
I1
sg1607
I1
sg1293
I1
sg541
I1
sg833
I1
sS'broodthaers'
p4605
I4
sS'centro'
p4606
I1
sS'encased'
p4607
I1
sg1012
I1
sg3737
I1
sg121
I1
sg4522
I1
ssS'00403'
p4608
(dp4609
g135
I1
sg563
I1
sS'yamaguchi'
p4610
I1
sS'lightbulbs'
p4611
I1
sg574
I1
sS'source'
p4612
I1
sg231
I1
sS'covered'
p4613
I1
sg315
I1
sg18
I1
sg577
I1
sg833
I1
sS'posed'
p4614
I1
sg1236
I1
sS'non-fine'
p4615
I1
sg153
I2
sS'katsuhiro'
p4616
I1
sS'instructions'
p4617
I1
sS'easel'
p4618
I1
sg3214
I1
sS'occasions'
p4619
I1
sg56
I1
sg2552
I1
sg125
I2
sS'fair'
p4620
I1
sg599
I1
sS'betye'
p4621
I1
sg1460
I2
sS'deploying'
p4622
I1
sg1623
I1
sS'invoked'
p4623
I1
sg214
I1
sg1768
I1
sg616
I1
sS'saar'
p4624
I1
sg738
I1
sg2303
I1
sS'conditions'
p4625
I1
sg1346
I1
sg497
I1
sg1347
I1
sg90
I1
sS'cara'
p4626
I1
sg55
I1
sg3567
I1
sS'newspapers'
p4627
I1
sg4447
I1
sg4505
I2
sg4507
I1
sS'sketchbook'
p4628
I1
sg763
I1
sg237
I1
sg920
I1
sg2459
I1
sg372
I1
sg982
I1
sg2464
I1
sg2532
I1
sg3343
I1
sS'else'
p4629
I1
sg290
I1
sg1164
I1
sS'manes'
p4630
I1
sg85
I1
sg2905
I1
sS'formats'
p4631
I1
sg2759
I1
sg385
I1
sg92
I1
sg1926
I2
sg1379
I1
sS'surprisingly'
p4632
I1
sS'something'
p4633
I2
sS'taxidermied'
p4634
I1
sg3241
I2
sg2851
I1
sS'niki'
p4635
I1
sg1395
I1
sg3903
I1
sg2183
I1
sg541
I1
sS'oil'
p4636
I1
sg3680
I1
sg2416
I2
sg1351
I1
sg336
I1
sg1226
I1
sS'juxtaposed'
p4637
I1
sS'whereby'
p4638
I1
sg1034
I1
sg261
I2
sg263
I2
sS'phalle'
p4639
I1
sg121
I1
ssS'00402'
p4640
(dp4641
g1539
I1
sg3814
I1
sg3551
I1
sS'repose'
p4642
I1
sS'thomson'
p4643
I1
sS'norbye'
p4644
I1
sS'motions'
p4645
I1
sg8
I1
sS'jerome'
p4646
I1
sS'jessie'
p4647
I1
sS'simon'
p4648
I1
sS'barely'
p4649
I1
sS'hassabi'
p4650
I3
sS'kaaitheater'
p4651
I1
sg305
I1
sg102
I2
sS'helland'
p4652
I1
sg577
I1
sS'halvorsen'
p4653
I1
sS'harakas'
p4654
I1
sg4429
I1
sg951
I1
sg175
I2
sS'poses'
p4655
I1
sg1104
I1
sS'positions'
p4656
I1
sg1755
I1
sS'reformats'
p4657
I1
sg4350
I1
sS'audience'
p4658
I1
sg3006
I1
sg593
I1
sS'abrons'
p4659
I1
sS'neil'
p4660
I1
sg7
I1
sS'choreographer'
p4661
I1
sg4082
I1
sg29
I1
sS'lorenzen'
p4662
I1
sg670
I3
sg607
I1
sS'courchel'
p4663
I1
sg2528
I1
sS'hart'
p4664
I1
sg736
I1
sg1124
I1
sS'shelley'
p4665
I1
sS'gund'
p4666
I2
sS'kate'
p4667
I1
sg4384
I1
sg436
I1
sg2910
I2
sg491
I1
sg3711
I1
sS'molly'
p4668
I1
sg51
I1
sg835
I1
sS'gratefully'
p4669
I1
sS'senter'
p4670
I1
sg1978
I1
sg1775
I1
sS'spradlin'
p4671
I1
sg1349
I1
sg843
I3
sg58
I1
sS'perceptible'
p4672
I1
sg1507
I1
sS'rosenfeld'
p4673
I1
sg2849
I1
sS'monaghan'
p4674
I1
sS'niall'
p4675
I2
sS'alliance'
p4676
I1
sg1778
I1
sg832
I3
sS'lieber'
p4677
I1
sg3030
I1
sS'marina'
p4678
I1
sS'floors'
p4679
I1
sS'month-long'
p4680
I1
sg812
I4
sg1167
I1
sS'fifth-floor'
p4681
I2
sg204
I1
sS'hawkins'
p4682
I1
sS'kennis'
p4683
I1
sS'hristoula'
p4684
I1
sS'removing'
p4685
I1
sg1173
I4
sg3780
I1
sS'fourth-'
p4686
I2
sg639
I1
sS'collapse'
p4687
I1
sS'apparent'
p4688
I1
sS'observe'
p4689
I1
sg1286
I1
sg2268
I2
sS'greenberg'
p4690
I1
sS'distance'
p4691
I1
sg578
I3
sg3429
I1
sS'recall'
p4692
I1
sS'pace'
p4693
I1
sS'continuously'
p4694
I1
sS'mahar'
p4695
I1
sg92
I1
sS'mickey'
p4696
I1
sg1724
I1
sg282
I2
sg209
I1
sS'roseanne'
p4697
I1
sg811
I1
sS'threeasfour'
p4698
I1
sg813
I1
sg105
I1
sg1450
I1
sg3490
I1
sS'tara'
p4699
I1
sg3266
I1
sg542
I1
sS'tension'
p4700
I1
sg830
I4
sS'elizabeth'
p4701
I1
sS'staircase'
p4702
I3
sS'fran'
p4703
I1
sg2416
I1
sg1301
I1
sS'fridays'
p4704
I1
sS'morten'
p4705
I1
sS'ois'
p4706
I1
sS'lobby'
p4707
I2
sg2505
I2
sS'jones'
p4708
I2
sg3351
I1
sg552
I1
sS'stillness'
p4709
I1
sg257
I1
sg867
I1
sS'staircases'
p4710
I1
sS'paige'
p4711
I1
sg121
I1
sg801
I1
sS'agnes'
p4712
I2
ssS'00405'
p4713
(dp4714
g455
I2
sg370
I1
sg565
I3
sg597
I1
sg8
I1
sg1921
I1
sS'crimp'
p4715
I1
sS'dramatically'
p4716
I1
sg1390
I1
sg4503
I2
sg577
I1
sg711
I1
sg837
I1
sg542
I1
sg175
I5
sg3994
I1
sg4534
I1
sg56
I3
sg494
I2
sg1470
I1
sS'team'
p4717
I1
sg480
I1
sg609
I1
sg611
I3
sg616
I1
sg2810
I1
sg825
I1
sg340
I1
sg153
I4
sg436
I1
sg491
I1
sg913
I1
sg510
I2
sg3154
I1
sg145
I4
sg625
I1
sg3
I1
sg1428
I1
sg181
I1
sS'connection'
p4718
I1
sg223
I1
sg182
I1
sg1636
I1
sg810
I2
sS'depart'
p4719
I1
sg365
I1
sS'historian'
p4720
I1
sS'primary'
p4721
I1
sg2797
I1
sg70
I1
sg204
I4
sg3035
I1
sg763
I1
sg2165
I1
sg1489
I1
sg639
I1
sg664
I2
sg522
I1
sg478
I1
sS'iteration'
p4722
I1
sS'salam'
p4723
I1
sS'youth'
p4724
I1
sg1792
I1
sg534
I1
sg676
I1
sg1069
I1
sg79
I5
sS'locks'
p4725
I1
sg996
I1
sg677
I1
sg1452
I1
sS'eleey'
p4726
I1
sg1068
I1
sS'rochester'
p4727
I1
sS'mia'
p4728
I1
sg536
I1
sg107
I1
sg2795
I1
sg1133
I1
sg541
I1
sg435
I1
sS'elham'
p4729
I1
sS'arrives'
p4730
I1
sg1879
I1
sg2234
I1
sg2503
I1
sg403
I1
sg695
I1
sg548
I1
sg1405
I1
sg3345
I1
sg552
I1
sg1468
I1
sg1418
I1
sg4411
I1
sg185
I1
ssS'00404'
p4731
(dp4732
g417
I1
sS'koolhaas'
p4733
I1
sg191
I1
sg193
I1
sS'austrian'
p4734
I1
sg8
I2
sS'discipline'
p4735
I1
sg2200
I1
sg2003
I1
sg428
I1
sg2916
I1
sS'marks'
p4736
I1
sg3638
I1
sS'nauman'
p4737
I1
sg1027
I1
sg576
I1
sS'whiteread'
p4738
I1
sg316
I1
sg577
I1
sg433
I1
sg19
I1
sg168
I1
sS'crosses'
p4739
I1
sg153
I2
sg175
I2
sg462
I1
sg321
I3
sg1370
I1
sg603
I1
sg592
I4
sg2894
I2
sS'archetypes'
p4740
I1
sg1253
I5
sg56
I1
sS'gehry'
p4741
I1
sg910
I1
sg484
I1
sg209
I1
sg1876
I1
sS'kiesler'
p4742
I3
sg609
I1
sg297
I1
sS'unrealized'
p4743
I1
sS'single-family'
p4744
I1
sg1070
I1
sS'radi'
p4745
I1
sg1453
I1
sg791
I1
sS'rem'
p4746
I1
sg1612
I1
sS'mies'
p4747
I1
sg1026
I1
sS'disciplines'
p4748
I1
sS'asymptote'
p4749
I1
sg3088
I1
sg2143
I1
sS'frank'
p4750
I1
sg442
I2
sg286
I1
sg571
I1
sg625
I1
sS'tackled'
p4751
I1
sg3884
I1
sg443
I1
sg1132
I1
sg386
I1
sg265
I1
sg968
I1
sg637
I1
sg2031
I1
sS'merz'
p4752
I1
sS'dwelling'
p4753
I2
sg758
I1
sS'visions'
p4754
I1
sg3775
I1
sg1368
I1
sS'reference'
p4755
I1
sg655
I1
sS'expand'
p4756
I1
sS'topics'
p4757
I1
sg2845
I1
sg4637
I1
sg1529
I1
sg83
I2
sg85
I1
sS'der'
p4758
I1
sg815
I2
sg3390
I1
sg673
I1
sg1036
I1
sg607
I4
sg1796
I1
sg2638
I1
sg96
I1
sS'spanning'
p4759
I1
sg3726
I1
sg107
I1
sg541
I1
sS'smiljan'
p4760
I1
sg400
I1
sg691
I1
sg2433
I1
sS'endeavors'
p4761
I1
sg694
I3
sS'mario'
p4762
I1
sS'eisenman'
p4763
I1
sg113
I1
sS'bourgeois'
p4764
I1
sS'acquisitions'
p4765
I1
sS"kiesler's"
p4766
I1
sS'frederick'
p4767
I1
sg117
I1
sS'rohe'
p4768
I1
sg263
I1
ssS'00407'
p4769
(dp4770
g1744
I1
sS'bomb'
p4771
I2
sg140
I1
sg272
I1
sS'atomic'
p4772
I1
sg7
I2
sS'visceral'
p4773
I1
sS'tomatsu'
p4774
I1
sS'shomei'
p4775
I1
sg2003
I1
sg13
I1
sg461
I1
sg15
I1
sS'chimei'
p4776
I1
sg1027
I1
sS'michaux'
p4777
I1
sg577
I1
sg719
I1
sg4614
I1
sg168
I1
sS'otherworldly'
p4778
I1
sg469
I1
sg175
I1
sg3644
I1
sS'confront'
p4779
I1
sS'post-atomic'
p4780
I1
sg56
I2
sg2748
I1
sg193
I1
sS'respond'
p4781
I1
sS'battlefield'
p4782
I1
sS'lucy'
p4783
I1
sg3828
I1
sg3082
I1
sg209
I1
sg1877
I1
sg736
I1
sS'spectral'
p4784
I1
sg1453
I1
sg1612
I1
sg4625
I1
sg374
I1
sg2416
I1
sg1029
I1
sg494
I1
sg866
I1
sS'shaman'
p4785
I1
sg1952
I1
sg2849
I1
sS'hamada'
p4786
I1
sS'soldier'
p4787
I1
sg222
I1
sg182
I1
sS'existential'
p4788
I1
sg36
I1
sg226
I2
sg4754
I1
sS'crisis'
p4789
I1
sg3659
I1
sS'sarah'
p4790
I1
sg574
I1
sg4024
I1
sg78
I1
sS'mystical'
p4791
I1
sS'gallun'
p4792
I1
sS'wake'
p4793
I1
sg1789
I1
sg84
I1
sS'suzuki'
p4794
I1
sg50
I1
sg385
I1
sg147
I1
sS'horrors'
p4795
I1
sg3332
I1
sg426
I1
sg541
I2
sg1988
I1
sS'combat'
p4796
I1
sS'reynal'
p4797
I1
sg4764
I1
sS'dissolving'
p4798
I1
sg1034
I1
sS'spectre'
p4799
I1
sS'darger'
p4800
I1
sg257
I1
sS'camps'
p4801
I1
sg801
I1
sS'shadowed'
p4802
I1
ssS'00406'
p4803
(dp4804
S'kimura'
p4805
I1
sg565
I1
sg874
I1
sS'focusing'
p4806
I1
sS'chagas'
p4807
I1
sg272
I1
sg1446
I1
sg1746
I2
sS'longstanding'
p4808
I1
sg1748
I1
sS'distributed'
p4809
I1
sg574
I1
sS'platform'
p4810
I1
sg1176
I2
sg3917
I1
sS'photo-based'
p4811
I1
sg719
I6
sg198
I2
sg578
I18
sg3071
I1
sS'belgium'
p4812
I1
sg175
I2
sg860
I1
sS'post-internet'
p4813
I1
sg2206
I1
sg4554
I1
sg850
I1
sS'experiencing'
p4814
I1
sS'redefine'
p4815
I1
sS'three-dimensional'
p4816
I1
sS'czech'
p4817
I1
sg480
I2
sS'biannual'
p4818
I1
sg483
I1
sg209
I7
sS'analog'
p4819
I1
sS'pinsky'
p4820
I1
sg2859
I1
sg297
I1
sg3707
I1
sg1070
I1
sg8
I1
sg281
I1
sS'navigating'
p4821
I1
sg1772
I1
sg153
I4
sS'shiga'
p4822
I1
sg3711
I1
sg286
I1
sg497
I1
sg4541
I1
sS'novitskova'
p4823
I1
sg3368
I1
sS'launch'
p4824
I1
sS'lenses'
p4825
I1
sg4418
I1
sg3166
I1
sS'henner'
p4826
I1
sS'saveri'
p4827
I1
sS'intellectual'
p4828
I1
sS'magdy'
p4829
I1
sg230
I1
sS'gaenssler'
p4830
I1
sg3381
I1
sg3778
I2
sS'returns'
p4831
I1
sS'blalock'
p4832
I1
sg2618
I1
sS'zines'
p4833
I1
sS"series'"
p4834
I1
sS'horvitz'
p4835
I1
sS'remixed'
p4836
I1
sS'collectives'
p4837
I1
sg107
I1
sg83
I2
sg4136
I1
sS'circulation'
p4838
I1
sg732
I1
sg85
I1
sS'morphed'
p4839
I1
sg382
I1
sS'houck'
p4840
I1
sS'scanners'
p4841
I1
sg299
I1
sS'azoulay'
p4842
I1
sg1476
I1
sS'expanding'
p4843
I1
sS'kruithof'
p4844
I1
sg1480
I1
sg4092
I1
sg1392
I1
sg3727
I1
sS'piracy'
p4845
I1
sg2531
I1
sS'virtual'
p4846
I1
sg4468
I1
sg2836
I1
sS'inquiry'
p4847
I1
sg1805
I1
sg691
I1
sg403
I1
sS'connectivity'
p4848
I1
sg3494
I1
sg112
I1
sS'baladr'
p4849
I1
sg2188
I1
sg700
I1
sS'image-based'
p4850
I1
sS'hartt'
p4851
I1
sS'ocean'
p4852
I3
sg2510
I1
sg3737
I1
sg801
I1
ssS'00409'
p4853
(dp4854
g1027
I1
sg226
I1
sS'gulliver'
p4855
I1
sS'ron'
p4856
I1
sg4592
I1
sS'issued'
p4857
I1
sg367
I1
sS'circus'
p4858
I1
sg3494
I1
sg950
I1
sg400
I1
sg56
I1
sg2578
I1
sS'shadowgraph'
p4859
I1
sg484
I2
sg488
I1
sS'panoramas'
p4860
I1
sg278
I1
sg8
I1
sS'sellery'
p4861
I1
sS"artists'"
p4862
I1
sS'toy'
p4863
I1
sg3791
I1
sS'silent'
p4864
I1
sS'ernie'
p4865
I1
sg107
I1
sg1286
I1
sg764
I1
sS'transforms'
p4866
I1
sg4343
I1
sg2038
I1
sg4612
I1
sg417
I1
sS'animation'
p4867
I1
sg785
I2
sg920
I1
sg1805
I1
sg341
I1
sg153
I1
sS'adaptation'
p4868
I1
sg1242
I1
sg3880
I1
sS'exercise'
p4869
I1
sS'nice'
p4870
I1
sS'multiscreen'
p4871
I1
sg372
I1
sg333
I1
sg743
I1
sS'sequential'
p4872
I1
sg80
I1
sg494
I1
sS'cavoulacos'
p4873
I1
sg2856
I1
sg2419
I1
sg1179
I1
sS'magliozzi'
p4874
I1
sg192
I2
sg765
I1
sg519
I1
sg541
I2
sg1101
I1
sS'graphics'
p4875
I1
sS'genre'
p4876
I1
sg3385
I1
sg173
I1
sS'sophie'
p4877
I1
sg702
I1
sg2992
I2
sg2444
I1
sg843
I1
sg3718
I1
sg58
I2
sg4209
I1
sS'carnival'
p4878
I3
sg1187
I1
sg900
I1
sS'tour'
p4879
I1
sg2314
I1
sg577
I1
sS'early-'
p4880
I1
sS'stroboscopic'
p4881
I1
sg853
I2
sS'gehr'
p4882
I3
sg193
I1
ssS'00408'
p4883
(dp4884
g3217
I1
sg135
I1
sg2124
I1
sS'enemy'
p4885
I1
sS'swelling'
p4886
I1
sg564
I1
sg270
I1
sg565
I3
sg1199
I1
sS'deftly'
p4887
I1
sS'fishing'
p4888
I1
sS'follow'
p4889
I1
sS'sekula'
p4890
I1
sg8
I1
sg424
I1
sS'feng'
p4891
I1
sg459
I1
sg1748
I1
sS'alternate'
p4892
I1
sS'stave'
p4893
I1
sg196
I1
sS'blends'
p4894
I1
sg2128
I1
sg3638
I1
sS'nalini'
p4895
I1
sS'return'
p4896
I1
sg316
I1
sS'propose'
p4897
I1
sg228
I1
sg168
I1
sg153
I3
sg4187
I1
sg175
I3
sg132
I3
sS'commemoration'
p4898
I1
sg462
I1
sS'maljkovi'
p4899
I1
sg2205
I1
sg1425
I1
sg286
I1
sg1755
I1
sS'arrows'
p4900
I2
sg3074
I1
sg1152
I1
sS'mengbo'
p4901
I1
sg245
I1
sS'croatian'
p4902
I1
sg1620
I1
sg330
I2
sS'allan'
p4903
I1
sg331
I1
sg4377
I3
sg2825
I1
sS'migration'
p4904
I1
sg209
I2
sS'multimedia'
p4905
I1
sS'circulating'
p4906
I1
sg4183
I1
sg617
I2
sS'boat'
p4907
I1
sg469
I1
sg4625
I1
sS'digitized'
p4908
I1
sS'guo-qiang'
p4909
I1
sg1262
I1
sg1346
I1
sS'imagine'
p4910
I1
sS'luis'
p4911
I1
sS'kara'
p4912
I1
sS'kitchen'
p4913
I1
sg58
I1
sg356
I1
sS'reinstallation'
p4914
I1
sg2849
I1
sg222
I2
sg750
I1
sg182
I2
sg2303
I1
sS'lends'
p4915
I1
sg1489
I2
sg760
I1
sg909
I1
sS'channels'
p4916
I1
sg508
I1
sS'contradictions'
p4917
I1
sS'gamepieces'
p4918
I1
sg1201
I1
sg1448
I1
sg3659
I1
sS'discrepancies'
p4919
I1
sg2704
I1
sS'informed'
p4920
I1
sg1129
I1
sS'fight'
p4921
I1
sS'distributing'
p4922
I1
sS'henrot'
p4923
I1
sS'amnesia'
p4924
I1
sS'heritage'
p4925
I3
sg1281
I2
sS'haegue'
p4926
I1
sg371
I1
sg96
I1
sg1074
I1
sS'differences'
p4927
I1
sS'pierced'
p4928
I1
sS'camnitzer'
p4929
I1
sg2042
I1
sg1386
I1
sg312
I1
sg842
I1
sg291
I1
sg83
I1
sg1974
I1
sg1872
I1
sS'lament'
p4930
I1
sg85
I1
sS'socialist'
p4931
I1
sg1187
I2
sg815
I2
sg4055
I1
sg89
I1
sg4137
I1
sg299
I2
sg282
I2
sS'cross-medium'
p4932
I1
sg204
I1
sg98
I1
sg394
I1
sg287
I1
sS'mrou'
p4933
I1
sS'assessing'
p4934
I1
sS'absences'
p4935
I1
sg3771
I1
sS'camille'
p4936
I1
sg107
I1
sS'malani'
p4937
I1
sg1396
I1
sg198
I1
sg4326
I1
sg1495
I2
sS'jaar'
p4938
I1
sg1499
I1
sS'reinterpretation'
p4939
I1
sg3706
I1
sg403
I1
sg2730
I1
sg2194
I1
sg697
I1
sS'walker'
p4940
I1
sS'rabih'
p4941
I1
sg2188
I1
sg3734
I1
sS'crosscurrents'
p4942
I1
sg3346
I1
sg702
I1
sg3594
I1
sS'borrowing'
p4943
I1
sS'sallim'
p4944
I1
sg119
I1
sS'yang'
p4945
I1
sg257
I1
sS'allow'
p4946
I1
sg867
I2
sS'alfredo'
p4947
I1
sS'centuries-old'
p4948
I1
sS'geographic'
p4949
I1
ss.